
kernel.bin:     file format elf32-i386


Disassembly of section .text:

c0001500 <main>:
c0001500:	8d 4c 24 04          	lea    0x4(%esp),%ecx
c0001504:	83 e4 f0             	and    $0xfffffff0,%esp
c0001507:	ff 71 fc             	pushl  -0x4(%ecx)
c000150a:	55                   	push   %ebp
c000150b:	89 e5                	mov    %esp,%ebp
c000150d:	51                   	push   %ecx
c000150e:	83 ec 04             	sub    $0x4,%esp
c0001511:	83 ec 0c             	sub    $0xc,%esp
c0001514:	68 10 33 00 c0       	push   $0xc0003310
c0001519:	e8 6f 1d 00 00       	call   c000328d <put_str>
c000151e:	83 c4 10             	add    $0x10,%esp
c0001521:	83 ec 0c             	sub    $0xc,%esp
c0001524:	68 37 33 00 c0       	push   $0xc0003337
c0001529:	e8 5f 1d 00 00       	call   c000328d <put_str>
c000152e:	83 c4 10             	add    $0x10,%esp
c0001531:	e8 91 00 00 00       	call   c00015c7 <init_all>
c0001536:	68 39 33 00 c0       	push   $0xc0003339
c000153b:	68 8f 15 00 c0       	push   $0xc000158f
c0001540:	6a 1f                	push   $0x1f
c0001542:	68 3e 33 00 c0       	push   $0xc000333e
c0001547:	e8 18 0c 00 00       	call   c0002164 <thread_start>
c000154c:	83 c4 10             	add    $0x10,%esp
c000154f:	68 49 33 00 c0       	push   $0xc0003349
c0001554:	68 ab 15 00 c0       	push   $0xc00015ab
c0001559:	6a 05                	push   $0x5
c000155b:	68 4e 33 00 c0       	push   $0xc000334e
c0001560:	e8 ff 0b 00 00       	call   c0002164 <thread_start>
c0001565:	83 c4 10             	add    $0x10,%esp
c0001568:	e8 b2 05 00 00       	call   c0001b1f <intr_enable>
c000156d:	83 ec 0c             	sub    $0xc,%esp
c0001570:	68 59 33 00 c0       	push   $0xc0003359
c0001575:	e8 13 1d 00 00       	call   c000328d <put_str>
c000157a:	83 c4 10             	add    $0x10,%esp
c000157d:	83 ec 0c             	sub    $0xc,%esp
c0001580:	68 67 33 00 c0       	push   $0xc0003367
c0001585:	e8 03 1d 00 00       	call   c000328d <put_str>
c000158a:	83 c4 10             	add    $0x10,%esp
c000158d:	eb ee                	jmp    c000157d <main+0x7d>

c000158f <k_thread_a>:
c000158f:	55                   	push   %ebp
c0001590:	89 e5                	mov    %esp,%ebp
c0001592:	83 ec 18             	sub    $0x18,%esp
c0001595:	8b 45 08             	mov    0x8(%ebp),%eax
c0001598:	89 45 f4             	mov    %eax,-0xc(%ebp)
c000159b:	83 ec 0c             	sub    $0xc,%esp
c000159e:	ff 75 f4             	pushl  -0xc(%ebp)
c00015a1:	e8 e7 1c 00 00       	call   c000328d <put_str>
c00015a6:	83 c4 10             	add    $0x10,%esp
c00015a9:	eb f0                	jmp    c000159b <k_thread_a+0xc>

c00015ab <k_thread_b>:
c00015ab:	55                   	push   %ebp
c00015ac:	89 e5                	mov    %esp,%ebp
c00015ae:	83 ec 18             	sub    $0x18,%esp
c00015b1:	8b 45 08             	mov    0x8(%ebp),%eax
c00015b4:	89 45 f4             	mov    %eax,-0xc(%ebp)
c00015b7:	83 ec 0c             	sub    $0xc,%esp
c00015ba:	ff 75 f4             	pushl  -0xc(%ebp)
c00015bd:	e8 cb 1c 00 00       	call   c000328d <put_str>
c00015c2:	83 c4 10             	add    $0x10,%esp
c00015c5:	eb f0                	jmp    c00015b7 <k_thread_b+0xc>

c00015c7 <init_all>:
c00015c7:	55                   	push   %ebp
c00015c8:	89 e5                	mov    %esp,%ebp
c00015ca:	83 ec 08             	sub    $0x8,%esp
c00015cd:	e8 fe 08 00 00       	call   c0001ed0 <idt_init>
c00015d2:	e8 d6 04 00 00       	call   c0001aad <timer_init>
c00015d7:	e8 b1 14 00 00       	call   c0002a8d <mem_init>
c00015dc:	e8 df 0c 00 00       	call   c00022c0 <thread_init>
c00015e1:	90                   	nop
c00015e2:	c9                   	leave  
c00015e3:	c3                   	ret    
c00015e4:	66 90                	xchg   %ax,%ax
c00015e6:	66 90                	xchg   %ax,%ax
c00015e8:	66 90                	xchg   %ax,%ax
c00015ea:	66 90                	xchg   %ax,%ax
c00015ec:	66 90                	xchg   %ax,%ax
c00015ee:	66 90                	xchg   %ax,%ax

c00015f0 <tmp_eax>:
	...

c00015f2 <intr_exit>:
c00015f2:	83 c4 04             	add    $0x4,%esp
c00015f5:	61                   	popa   
c00015f6:	a3 f0 15 00 c0       	mov    %eax,0xc00015f0
c00015fb:	58                   	pop    %eax
c00015fc:	8e e8                	mov    %eax,%gs
c00015fe:	58                   	pop    %eax
c00015ff:	8e e0                	mov    %eax,%fs
c0001601:	58                   	pop    %eax
c0001602:	8e c0                	mov    %eax,%es
c0001604:	58                   	pop    %eax
c0001605:	8e d8                	mov    %eax,%ds
c0001607:	a1 f0 15 00 c0       	mov    0xc00015f0,%eax
c000160c:	83 c4 04             	add    $0x4,%esp
c000160f:	cf                   	iret   

c0001610 <intr0x00entry>:
c0001610:	6a 00                	push   $0x0
c0001612:	1e                   	push   %ds
c0001613:	06                   	push   %es
c0001614:	0f a0                	push   %fs
c0001616:	0f a8                	push   %gs
c0001618:	60                   	pusha  
c0001619:	b0 20                	mov    $0x20,%al
c000161b:	e6 a0                	out    %al,$0xa0
c000161d:	e6 20                	out    %al,$0x20
c000161f:	6a 00                	push   $0x0
c0001621:	ff 15 00 55 00 c0    	call   *0xc0005500
c0001627:	eb c9                	jmp    c00015f2 <intr_exit>

c0001629 <intr0x01entry>:
c0001629:	6a 00                	push   $0x0
c000162b:	1e                   	push   %ds
c000162c:	06                   	push   %es
c000162d:	0f a0                	push   %fs
c000162f:	0f a8                	push   %gs
c0001631:	60                   	pusha  
c0001632:	b0 20                	mov    $0x20,%al
c0001634:	e6 a0                	out    %al,$0xa0
c0001636:	e6 20                	out    %al,$0x20
c0001638:	6a 01                	push   $0x1
c000163a:	ff 15 04 55 00 c0    	call   *0xc0005504
c0001640:	eb b0                	jmp    c00015f2 <intr_exit>

c0001642 <intr0x02entry>:
c0001642:	6a 00                	push   $0x0
c0001644:	1e                   	push   %ds
c0001645:	06                   	push   %es
c0001646:	0f a0                	push   %fs
c0001648:	0f a8                	push   %gs
c000164a:	60                   	pusha  
c000164b:	b0 20                	mov    $0x20,%al
c000164d:	e6 a0                	out    %al,$0xa0
c000164f:	e6 20                	out    %al,$0x20
c0001651:	6a 02                	push   $0x2
c0001653:	ff 15 08 55 00 c0    	call   *0xc0005508
c0001659:	eb 97                	jmp    c00015f2 <intr_exit>

c000165b <intr0x03entry>:
c000165b:	6a 00                	push   $0x0
c000165d:	1e                   	push   %ds
c000165e:	06                   	push   %es
c000165f:	0f a0                	push   %fs
c0001661:	0f a8                	push   %gs
c0001663:	60                   	pusha  
c0001664:	b0 20                	mov    $0x20,%al
c0001666:	e6 a0                	out    %al,$0xa0
c0001668:	e6 20                	out    %al,$0x20
c000166a:	6a 03                	push   $0x3
c000166c:	ff 15 0c 55 00 c0    	call   *0xc000550c
c0001672:	e9 7b ff ff ff       	jmp    c00015f2 <intr_exit>

c0001677 <intr0x04entry>:
c0001677:	6a 00                	push   $0x0
c0001679:	1e                   	push   %ds
c000167a:	06                   	push   %es
c000167b:	0f a0                	push   %fs
c000167d:	0f a8                	push   %gs
c000167f:	60                   	pusha  
c0001680:	b0 20                	mov    $0x20,%al
c0001682:	e6 a0                	out    %al,$0xa0
c0001684:	e6 20                	out    %al,$0x20
c0001686:	6a 04                	push   $0x4
c0001688:	ff 15 10 55 00 c0    	call   *0xc0005510
c000168e:	e9 5f ff ff ff       	jmp    c00015f2 <intr_exit>

c0001693 <intr0x05entry>:
c0001693:	6a 00                	push   $0x0
c0001695:	1e                   	push   %ds
c0001696:	06                   	push   %es
c0001697:	0f a0                	push   %fs
c0001699:	0f a8                	push   %gs
c000169b:	60                   	pusha  
c000169c:	b0 20                	mov    $0x20,%al
c000169e:	e6 a0                	out    %al,$0xa0
c00016a0:	e6 20                	out    %al,$0x20
c00016a2:	6a 05                	push   $0x5
c00016a4:	ff 15 14 55 00 c0    	call   *0xc0005514
c00016aa:	e9 43 ff ff ff       	jmp    c00015f2 <intr_exit>

c00016af <intr0x06entry>:
c00016af:	6a 00                	push   $0x0
c00016b1:	1e                   	push   %ds
c00016b2:	06                   	push   %es
c00016b3:	0f a0                	push   %fs
c00016b5:	0f a8                	push   %gs
c00016b7:	60                   	pusha  
c00016b8:	b0 20                	mov    $0x20,%al
c00016ba:	e6 a0                	out    %al,$0xa0
c00016bc:	e6 20                	out    %al,$0x20
c00016be:	6a 06                	push   $0x6
c00016c0:	ff 15 18 55 00 c0    	call   *0xc0005518
c00016c6:	e9 27 ff ff ff       	jmp    c00015f2 <intr_exit>

c00016cb <intr0x07entry>:
c00016cb:	6a 00                	push   $0x0
c00016cd:	1e                   	push   %ds
c00016ce:	06                   	push   %es
c00016cf:	0f a0                	push   %fs
c00016d1:	0f a8                	push   %gs
c00016d3:	60                   	pusha  
c00016d4:	b0 20                	mov    $0x20,%al
c00016d6:	e6 a0                	out    %al,$0xa0
c00016d8:	e6 20                	out    %al,$0x20
c00016da:	6a 07                	push   $0x7
c00016dc:	ff 15 1c 55 00 c0    	call   *0xc000551c
c00016e2:	e9 0b ff ff ff       	jmp    c00015f2 <intr_exit>

c00016e7 <intr0x08entry>:
c00016e7:	90                   	nop
c00016e8:	1e                   	push   %ds
c00016e9:	06                   	push   %es
c00016ea:	0f a0                	push   %fs
c00016ec:	0f a8                	push   %gs
c00016ee:	60                   	pusha  
c00016ef:	b0 20                	mov    $0x20,%al
c00016f1:	e6 a0                	out    %al,$0xa0
c00016f3:	e6 20                	out    %al,$0x20
c00016f5:	6a 08                	push   $0x8
c00016f7:	ff 15 20 55 00 c0    	call   *0xc0005520
c00016fd:	e9 f0 fe ff ff       	jmp    c00015f2 <intr_exit>

c0001702 <intr0x09entry>:
c0001702:	6a 00                	push   $0x0
c0001704:	1e                   	push   %ds
c0001705:	06                   	push   %es
c0001706:	0f a0                	push   %fs
c0001708:	0f a8                	push   %gs
c000170a:	60                   	pusha  
c000170b:	b0 20                	mov    $0x20,%al
c000170d:	e6 a0                	out    %al,$0xa0
c000170f:	e6 20                	out    %al,$0x20
c0001711:	6a 09                	push   $0x9
c0001713:	ff 15 24 55 00 c0    	call   *0xc0005524
c0001719:	e9 d4 fe ff ff       	jmp    c00015f2 <intr_exit>

c000171e <intr0x0aentry>:
c000171e:	90                   	nop
c000171f:	1e                   	push   %ds
c0001720:	06                   	push   %es
c0001721:	0f a0                	push   %fs
c0001723:	0f a8                	push   %gs
c0001725:	60                   	pusha  
c0001726:	b0 20                	mov    $0x20,%al
c0001728:	e6 a0                	out    %al,$0xa0
c000172a:	e6 20                	out    %al,$0x20
c000172c:	6a 0a                	push   $0xa
c000172e:	ff 15 28 55 00 c0    	call   *0xc0005528
c0001734:	e9 b9 fe ff ff       	jmp    c00015f2 <intr_exit>

c0001739 <intr0x0bentry>:
c0001739:	90                   	nop
c000173a:	1e                   	push   %ds
c000173b:	06                   	push   %es
c000173c:	0f a0                	push   %fs
c000173e:	0f a8                	push   %gs
c0001740:	60                   	pusha  
c0001741:	b0 20                	mov    $0x20,%al
c0001743:	e6 a0                	out    %al,$0xa0
c0001745:	e6 20                	out    %al,$0x20
c0001747:	6a 0b                	push   $0xb
c0001749:	ff 15 2c 55 00 c0    	call   *0xc000552c
c000174f:	e9 9e fe ff ff       	jmp    c00015f2 <intr_exit>

c0001754 <intr0x0centry>:
c0001754:	6a 00                	push   $0x0
c0001756:	1e                   	push   %ds
c0001757:	06                   	push   %es
c0001758:	0f a0                	push   %fs
c000175a:	0f a8                	push   %gs
c000175c:	60                   	pusha  
c000175d:	b0 20                	mov    $0x20,%al
c000175f:	e6 a0                	out    %al,$0xa0
c0001761:	e6 20                	out    %al,$0x20
c0001763:	6a 0c                	push   $0xc
c0001765:	ff 15 30 55 00 c0    	call   *0xc0005530
c000176b:	e9 82 fe ff ff       	jmp    c00015f2 <intr_exit>

c0001770 <intr0x0dentry>:
c0001770:	90                   	nop
c0001771:	1e                   	push   %ds
c0001772:	06                   	push   %es
c0001773:	0f a0                	push   %fs
c0001775:	0f a8                	push   %gs
c0001777:	60                   	pusha  
c0001778:	b0 20                	mov    $0x20,%al
c000177a:	e6 a0                	out    %al,$0xa0
c000177c:	e6 20                	out    %al,$0x20
c000177e:	6a 0d                	push   $0xd
c0001780:	ff 15 34 55 00 c0    	call   *0xc0005534
c0001786:	e9 67 fe ff ff       	jmp    c00015f2 <intr_exit>

c000178b <intr0x0eentry>:
c000178b:	90                   	nop
c000178c:	1e                   	push   %ds
c000178d:	06                   	push   %es
c000178e:	0f a0                	push   %fs
c0001790:	0f a8                	push   %gs
c0001792:	60                   	pusha  
c0001793:	b0 20                	mov    $0x20,%al
c0001795:	e6 a0                	out    %al,$0xa0
c0001797:	e6 20                	out    %al,$0x20
c0001799:	6a 0e                	push   $0xe
c000179b:	ff 15 38 55 00 c0    	call   *0xc0005538
c00017a1:	e9 4c fe ff ff       	jmp    c00015f2 <intr_exit>

c00017a6 <intr0x0fentry>:
c00017a6:	6a 00                	push   $0x0
c00017a8:	1e                   	push   %ds
c00017a9:	06                   	push   %es
c00017aa:	0f a0                	push   %fs
c00017ac:	0f a8                	push   %gs
c00017ae:	60                   	pusha  
c00017af:	b0 20                	mov    $0x20,%al
c00017b1:	e6 a0                	out    %al,$0xa0
c00017b3:	e6 20                	out    %al,$0x20
c00017b5:	6a 0f                	push   $0xf
c00017b7:	ff 15 3c 55 00 c0    	call   *0xc000553c
c00017bd:	e9 30 fe ff ff       	jmp    c00015f2 <intr_exit>

c00017c2 <intr0x10entry>:
c00017c2:	6a 00                	push   $0x0
c00017c4:	1e                   	push   %ds
c00017c5:	06                   	push   %es
c00017c6:	0f a0                	push   %fs
c00017c8:	0f a8                	push   %gs
c00017ca:	60                   	pusha  
c00017cb:	b0 20                	mov    $0x20,%al
c00017cd:	e6 a0                	out    %al,$0xa0
c00017cf:	e6 20                	out    %al,$0x20
c00017d1:	6a 10                	push   $0x10
c00017d3:	ff 15 40 55 00 c0    	call   *0xc0005540
c00017d9:	e9 14 fe ff ff       	jmp    c00015f2 <intr_exit>

c00017de <intr0x11entry>:
c00017de:	90                   	nop
c00017df:	1e                   	push   %ds
c00017e0:	06                   	push   %es
c00017e1:	0f a0                	push   %fs
c00017e3:	0f a8                	push   %gs
c00017e5:	60                   	pusha  
c00017e6:	b0 20                	mov    $0x20,%al
c00017e8:	e6 a0                	out    %al,$0xa0
c00017ea:	e6 20                	out    %al,$0x20
c00017ec:	6a 11                	push   $0x11
c00017ee:	ff 15 44 55 00 c0    	call   *0xc0005544
c00017f4:	e9 f9 fd ff ff       	jmp    c00015f2 <intr_exit>

c00017f9 <intr0x12entry>:
c00017f9:	6a 00                	push   $0x0
c00017fb:	1e                   	push   %ds
c00017fc:	06                   	push   %es
c00017fd:	0f a0                	push   %fs
c00017ff:	0f a8                	push   %gs
c0001801:	60                   	pusha  
c0001802:	b0 20                	mov    $0x20,%al
c0001804:	e6 a0                	out    %al,$0xa0
c0001806:	e6 20                	out    %al,$0x20
c0001808:	6a 12                	push   $0x12
c000180a:	ff 15 48 55 00 c0    	call   *0xc0005548
c0001810:	e9 dd fd ff ff       	jmp    c00015f2 <intr_exit>

c0001815 <intr0x13entry>:
c0001815:	6a 00                	push   $0x0
c0001817:	1e                   	push   %ds
c0001818:	06                   	push   %es
c0001819:	0f a0                	push   %fs
c000181b:	0f a8                	push   %gs
c000181d:	60                   	pusha  
c000181e:	b0 20                	mov    $0x20,%al
c0001820:	e6 a0                	out    %al,$0xa0
c0001822:	e6 20                	out    %al,$0x20
c0001824:	6a 13                	push   $0x13
c0001826:	ff 15 4c 55 00 c0    	call   *0xc000554c
c000182c:	e9 c1 fd ff ff       	jmp    c00015f2 <intr_exit>

c0001831 <intr0x14entry>:
c0001831:	6a 00                	push   $0x0
c0001833:	1e                   	push   %ds
c0001834:	06                   	push   %es
c0001835:	0f a0                	push   %fs
c0001837:	0f a8                	push   %gs
c0001839:	60                   	pusha  
c000183a:	b0 20                	mov    $0x20,%al
c000183c:	e6 a0                	out    %al,$0xa0
c000183e:	e6 20                	out    %al,$0x20
c0001840:	6a 14                	push   $0x14
c0001842:	ff 15 50 55 00 c0    	call   *0xc0005550
c0001848:	e9 a5 fd ff ff       	jmp    c00015f2 <intr_exit>

c000184d <intr0x15entry>:
c000184d:	6a 00                	push   $0x0
c000184f:	1e                   	push   %ds
c0001850:	06                   	push   %es
c0001851:	0f a0                	push   %fs
c0001853:	0f a8                	push   %gs
c0001855:	60                   	pusha  
c0001856:	b0 20                	mov    $0x20,%al
c0001858:	e6 a0                	out    %al,$0xa0
c000185a:	e6 20                	out    %al,$0x20
c000185c:	6a 15                	push   $0x15
c000185e:	ff 15 54 55 00 c0    	call   *0xc0005554
c0001864:	e9 89 fd ff ff       	jmp    c00015f2 <intr_exit>

c0001869 <intr0x16entry>:
c0001869:	6a 00                	push   $0x0
c000186b:	1e                   	push   %ds
c000186c:	06                   	push   %es
c000186d:	0f a0                	push   %fs
c000186f:	0f a8                	push   %gs
c0001871:	60                   	pusha  
c0001872:	b0 20                	mov    $0x20,%al
c0001874:	e6 a0                	out    %al,$0xa0
c0001876:	e6 20                	out    %al,$0x20
c0001878:	6a 16                	push   $0x16
c000187a:	ff 15 58 55 00 c0    	call   *0xc0005558
c0001880:	e9 6d fd ff ff       	jmp    c00015f2 <intr_exit>

c0001885 <intr0x17entry>:
c0001885:	6a 00                	push   $0x0
c0001887:	1e                   	push   %ds
c0001888:	06                   	push   %es
c0001889:	0f a0                	push   %fs
c000188b:	0f a8                	push   %gs
c000188d:	60                   	pusha  
c000188e:	b0 20                	mov    $0x20,%al
c0001890:	e6 a0                	out    %al,$0xa0
c0001892:	e6 20                	out    %al,$0x20
c0001894:	6a 17                	push   $0x17
c0001896:	ff 15 5c 55 00 c0    	call   *0xc000555c
c000189c:	e9 51 fd ff ff       	jmp    c00015f2 <intr_exit>

c00018a1 <intr0x18entry>:
c00018a1:	90                   	nop
c00018a2:	1e                   	push   %ds
c00018a3:	06                   	push   %es
c00018a4:	0f a0                	push   %fs
c00018a6:	0f a8                	push   %gs
c00018a8:	60                   	pusha  
c00018a9:	b0 20                	mov    $0x20,%al
c00018ab:	e6 a0                	out    %al,$0xa0
c00018ad:	e6 20                	out    %al,$0x20
c00018af:	6a 18                	push   $0x18
c00018b1:	ff 15 60 55 00 c0    	call   *0xc0005560
c00018b7:	e9 36 fd ff ff       	jmp    c00015f2 <intr_exit>

c00018bc <intr0x19entry>:
c00018bc:	6a 00                	push   $0x0
c00018be:	1e                   	push   %ds
c00018bf:	06                   	push   %es
c00018c0:	0f a0                	push   %fs
c00018c2:	0f a8                	push   %gs
c00018c4:	60                   	pusha  
c00018c5:	b0 20                	mov    $0x20,%al
c00018c7:	e6 a0                	out    %al,$0xa0
c00018c9:	e6 20                	out    %al,$0x20
c00018cb:	6a 19                	push   $0x19
c00018cd:	ff 15 64 55 00 c0    	call   *0xc0005564
c00018d3:	e9 1a fd ff ff       	jmp    c00015f2 <intr_exit>

c00018d8 <intr0x1aentry>:
c00018d8:	90                   	nop
c00018d9:	1e                   	push   %ds
c00018da:	06                   	push   %es
c00018db:	0f a0                	push   %fs
c00018dd:	0f a8                	push   %gs
c00018df:	60                   	pusha  
c00018e0:	b0 20                	mov    $0x20,%al
c00018e2:	e6 a0                	out    %al,$0xa0
c00018e4:	e6 20                	out    %al,$0x20
c00018e6:	6a 1a                	push   $0x1a
c00018e8:	ff 15 68 55 00 c0    	call   *0xc0005568
c00018ee:	e9 ff fc ff ff       	jmp    c00015f2 <intr_exit>

c00018f3 <intr0x1bentry>:
c00018f3:	90                   	nop
c00018f4:	1e                   	push   %ds
c00018f5:	06                   	push   %es
c00018f6:	0f a0                	push   %fs
c00018f8:	0f a8                	push   %gs
c00018fa:	60                   	pusha  
c00018fb:	b0 20                	mov    $0x20,%al
c00018fd:	e6 a0                	out    %al,$0xa0
c00018ff:	e6 20                	out    %al,$0x20
c0001901:	6a 1b                	push   $0x1b
c0001903:	ff 15 6c 55 00 c0    	call   *0xc000556c
c0001909:	e9 e4 fc ff ff       	jmp    c00015f2 <intr_exit>

c000190e <intr0x1centry>:
c000190e:	6a 00                	push   $0x0
c0001910:	1e                   	push   %ds
c0001911:	06                   	push   %es
c0001912:	0f a0                	push   %fs
c0001914:	0f a8                	push   %gs
c0001916:	60                   	pusha  
c0001917:	b0 20                	mov    $0x20,%al
c0001919:	e6 a0                	out    %al,$0xa0
c000191b:	e6 20                	out    %al,$0x20
c000191d:	6a 1c                	push   $0x1c
c000191f:	ff 15 70 55 00 c0    	call   *0xc0005570
c0001925:	e9 c8 fc ff ff       	jmp    c00015f2 <intr_exit>

c000192a <intr0x1dentry>:
c000192a:	90                   	nop
c000192b:	1e                   	push   %ds
c000192c:	06                   	push   %es
c000192d:	0f a0                	push   %fs
c000192f:	0f a8                	push   %gs
c0001931:	60                   	pusha  
c0001932:	b0 20                	mov    $0x20,%al
c0001934:	e6 a0                	out    %al,$0xa0
c0001936:	e6 20                	out    %al,$0x20
c0001938:	6a 1d                	push   $0x1d
c000193a:	ff 15 74 55 00 c0    	call   *0xc0005574
c0001940:	e9 ad fc ff ff       	jmp    c00015f2 <intr_exit>

c0001945 <intr0x1eentry>:
c0001945:	90                   	nop
c0001946:	1e                   	push   %ds
c0001947:	06                   	push   %es
c0001948:	0f a0                	push   %fs
c000194a:	0f a8                	push   %gs
c000194c:	60                   	pusha  
c000194d:	b0 20                	mov    $0x20,%al
c000194f:	e6 a0                	out    %al,$0xa0
c0001951:	e6 20                	out    %al,$0x20
c0001953:	6a 1e                	push   $0x1e
c0001955:	ff 15 78 55 00 c0    	call   *0xc0005578
c000195b:	e9 92 fc ff ff       	jmp    c00015f2 <intr_exit>

c0001960 <intr0x1fentry>:
c0001960:	6a 00                	push   $0x0
c0001962:	1e                   	push   %ds
c0001963:	06                   	push   %es
c0001964:	0f a0                	push   %fs
c0001966:	0f a8                	push   %gs
c0001968:	60                   	pusha  
c0001969:	b0 20                	mov    $0x20,%al
c000196b:	e6 a0                	out    %al,$0xa0
c000196d:	e6 20                	out    %al,$0x20
c000196f:	6a 1f                	push   $0x1f
c0001971:	ff 15 7c 55 00 c0    	call   *0xc000557c
c0001977:	e9 76 fc ff ff       	jmp    c00015f2 <intr_exit>

c000197c <intr0x20entry>:
c000197c:	6a 00                	push   $0x0
c000197e:	1e                   	push   %ds
c000197f:	06                   	push   %es
c0001980:	0f a0                	push   %fs
c0001982:	0f a8                	push   %gs
c0001984:	60                   	pusha  
c0001985:	b0 20                	mov    $0x20,%al
c0001987:	e6 a0                	out    %al,$0xa0
c0001989:	e6 20                	out    %al,$0x20
c000198b:	6a 20                	push   $0x20
c000198d:	ff 15 80 55 00 c0    	call   *0xc0005580
c0001993:	e9 5a fc ff ff       	jmp    c00015f2 <intr_exit>

c0001998 <outb>:
c0001998:	55                   	push   %ebp
c0001999:	89 e5                	mov    %esp,%ebp
c000199b:	83 ec 08             	sub    $0x8,%esp
c000199e:	8b 55 08             	mov    0x8(%ebp),%edx
c00019a1:	8b 45 0c             	mov    0xc(%ebp),%eax
c00019a4:	66 89 55 fc          	mov    %dx,-0x4(%ebp)
c00019a8:	88 45 f8             	mov    %al,-0x8(%ebp)
c00019ab:	0f b6 45 f8          	movzbl -0x8(%ebp),%eax
c00019af:	0f b7 55 fc          	movzwl -0x4(%ebp),%edx
c00019b3:	ee                   	out    %al,(%dx)
c00019b4:	90                   	nop
c00019b5:	c9                   	leave  
c00019b6:	c3                   	ret    

c00019b7 <intr_timer_handler>:
c00019b7:	55                   	push   %ebp
c00019b8:	89 e5                	mov    %esp,%ebp
c00019ba:	83 ec 18             	sub    $0x18,%esp
c00019bd:	e8 52 05 00 00       	call   c0001f14 <running_thread>
c00019c2:	89 45 f4             	mov    %eax,-0xc(%ebp)
c00019c5:	8b 45 f4             	mov    -0xc(%ebp),%eax
c00019c8:	8b 40 34             	mov    0x34(%eax),%eax
c00019cb:	3d 23 02 89 19       	cmp    $0x19890223,%eax
c00019d0:	74 19                	je     c00019eb <intr_timer_handler+0x34>
c00019d2:	68 74 33 00 c0       	push   $0xc0003374
c00019d7:	68 e0 33 00 c0       	push   $0xc00033e0
c00019dc:	6a 10                	push   $0x10
c00019de:	68 9a 33 00 c0       	push   $0xc000339a
c00019e3:	e8 ff 16 00 00       	call   c00030e7 <panic_spin>
c00019e8:	83 c4 10             	add    $0x10,%esp
c00019eb:	8b 45 f4             	mov    -0xc(%ebp),%eax
c00019ee:	8b 40 1c             	mov    0x1c(%eax),%eax
c00019f1:	8d 50 01             	lea    0x1(%eax),%edx
c00019f4:	8b 45 f4             	mov    -0xc(%ebp),%eax
c00019f7:	89 50 1c             	mov    %edx,0x1c(%eax)
c00019fa:	a1 4c 54 00 c0       	mov    0xc000544c,%eax
c00019ff:	83 c0 01             	add    $0x1,%eax
c0001a02:	a3 4c 54 00 c0       	mov    %eax,0xc000544c
c0001a07:	83 ec 0c             	sub    $0xc,%esp
c0001a0a:	68 a2 33 00 c0       	push   $0xc00033a2
c0001a0f:	e8 79 18 00 00       	call   c000328d <put_str>
c0001a14:	83 c4 10             	add    $0x10,%esp
c0001a17:	8b 45 f4             	mov    -0xc(%ebp),%eax
c0001a1a:	0f b6 40 19          	movzbl 0x19(%eax),%eax
c0001a1e:	84 c0                	test   %al,%al
c0001a20:	75 07                	jne    c0001a29 <intr_timer_handler+0x72>
c0001a22:	e8 02 05 00 00       	call   c0001f29 <schedule>
c0001a27:	eb 10                	jmp    c0001a39 <intr_timer_handler+0x82>
c0001a29:	8b 45 f4             	mov    -0xc(%ebp),%eax
c0001a2c:	0f b6 40 19          	movzbl 0x19(%eax),%eax
c0001a30:	8d 50 ff             	lea    -0x1(%eax),%edx
c0001a33:	8b 45 f4             	mov    -0xc(%ebp),%eax
c0001a36:	88 50 19             	mov    %dl,0x19(%eax)
c0001a39:	90                   	nop
c0001a3a:	c9                   	leave  
c0001a3b:	c3                   	ret    

c0001a3c <frequency_set>:
c0001a3c:	55                   	push   %ebp
c0001a3d:	89 e5                	mov    %esp,%ebp
c0001a3f:	53                   	push   %ebx
c0001a40:	83 ec 10             	sub    $0x10,%esp
c0001a43:	8b 5d 08             	mov    0x8(%ebp),%ebx
c0001a46:	8b 4d 0c             	mov    0xc(%ebp),%ecx
c0001a49:	8b 55 14             	mov    0x14(%ebp),%edx
c0001a4c:	8b 45 18             	mov    0x18(%ebp),%eax
c0001a4f:	88 5d f8             	mov    %bl,-0x8(%ebp)
c0001a52:	88 4d f4             	mov    %cl,-0xc(%ebp)
c0001a55:	88 55 f0             	mov    %dl,-0x10(%ebp)
c0001a58:	66 89 45 ec          	mov    %ax,-0x14(%ebp)
c0001a5c:	0f b6 45 f4          	movzbl -0xc(%ebp),%eax
c0001a60:	c1 e0 06             	shl    $0x6,%eax
c0001a63:	89 c2                	mov    %eax,%edx
c0001a65:	8b 45 10             	mov    0x10(%ebp),%eax
c0001a68:	c1 e0 04             	shl    $0x4,%eax
c0001a6b:	09 c2                	or     %eax,%edx
c0001a6d:	0f b6 45 f0          	movzbl -0x10(%ebp),%eax
c0001a71:	01 c0                	add    %eax,%eax
c0001a73:	09 d0                	or     %edx,%eax
c0001a75:	0f b6 c0             	movzbl %al,%eax
c0001a78:	50                   	push   %eax
c0001a79:	6a 43                	push   $0x43
c0001a7b:	e8 18 ff ff ff       	call   c0001998 <outb>
c0001a80:	83 c4 08             	add    $0x8,%esp
c0001a83:	0f b7 45 ec          	movzwl -0x14(%ebp),%eax
c0001a87:	0f b6 d0             	movzbl %al,%edx
c0001a8a:	0f b6 45 f8          	movzbl -0x8(%ebp),%eax
c0001a8e:	52                   	push   %edx
c0001a8f:	50                   	push   %eax
c0001a90:	e8 03 ff ff ff       	call   c0001998 <outb>
c0001a95:	83 c4 08             	add    $0x8,%esp
c0001a98:	0f b6 45 f8          	movzbl -0x8(%ebp),%eax
c0001a9c:	6a 00                	push   $0x0
c0001a9e:	50                   	push   %eax
c0001a9f:	e8 f4 fe ff ff       	call   c0001998 <outb>
c0001aa4:	83 c4 08             	add    $0x8,%esp
c0001aa7:	90                   	nop
c0001aa8:	8b 5d fc             	mov    -0x4(%ebp),%ebx
c0001aab:	c9                   	leave  
c0001aac:	c3                   	ret    

c0001aad <timer_init>:
c0001aad:	55                   	push   %ebp
c0001aae:	89 e5                	mov    %esp,%ebp
c0001ab0:	83 ec 08             	sub    $0x8,%esp
c0001ab3:	83 ec 0c             	sub    $0xc,%esp
c0001ab6:	68 bb 33 00 c0       	push   $0xc00033bb
c0001abb:	e8 cd 17 00 00       	call   c000328d <put_str>
c0001ac0:	83 c4 10             	add    $0x10,%esp
c0001ac3:	83 ec 0c             	sub    $0xc,%esp
c0001ac6:	68 9b 2e 00 00       	push   $0x2e9b
c0001acb:	6a 02                	push   $0x2
c0001acd:	6a 03                	push   $0x3
c0001acf:	6a 00                	push   $0x0
c0001ad1:	6a 40                	push   $0x40
c0001ad3:	e8 64 ff ff ff       	call   c0001a3c <frequency_set>
c0001ad8:	83 c4 20             	add    $0x20,%esp
c0001adb:	83 ec 08             	sub    $0x8,%esp
c0001ade:	68 b7 19 00 c0       	push   $0xc00019b7
c0001ae3:	6a 20                	push   $0x20
c0001ae5:	e8 9c 01 00 00       	call   c0001c86 <register_handler>
c0001aea:	83 c4 10             	add    $0x10,%esp
c0001aed:	83 ec 0c             	sub    $0xc,%esp
c0001af0:	68 cd 33 00 c0       	push   $0xc00033cd
c0001af5:	e8 93 17 00 00       	call   c000328d <put_str>
c0001afa:	83 c4 10             	add    $0x10,%esp
c0001afd:	90                   	nop
c0001afe:	c9                   	leave  
c0001aff:	c3                   	ret    

c0001b00 <outb>:
c0001b00:	55                   	push   %ebp
c0001b01:	89 e5                	mov    %esp,%ebp
c0001b03:	83 ec 08             	sub    $0x8,%esp
c0001b06:	8b 55 08             	mov    0x8(%ebp),%edx
c0001b09:	8b 45 0c             	mov    0xc(%ebp),%eax
c0001b0c:	66 89 55 fc          	mov    %dx,-0x4(%ebp)
c0001b10:	88 45 f8             	mov    %al,-0x8(%ebp)
c0001b13:	0f b6 45 f8          	movzbl -0x8(%ebp),%eax
c0001b17:	0f b7 55 fc          	movzwl -0x4(%ebp),%edx
c0001b1b:	ee                   	out    %al,(%dx)
c0001b1c:	90                   	nop
c0001b1d:	c9                   	leave  
c0001b1e:	c3                   	ret    

c0001b1f <intr_enable>:
c0001b1f:	55                   	push   %ebp
c0001b20:	89 e5                	mov    %esp,%ebp
c0001b22:	83 ec 18             	sub    $0x18,%esp
c0001b25:	e8 65 00 00 00       	call   c0001b8f <intr_get_status>
c0001b2a:	83 f8 01             	cmp    $0x1,%eax
c0001b2d:	75 0c                	jne    c0001b3b <intr_enable+0x1c>
c0001b2f:	c7 45 f4 01 00 00 00 	movl   $0x1,-0xc(%ebp)
c0001b36:	8b 45 f4             	mov    -0xc(%ebp),%eax
c0001b39:	eb 0b                	jmp    c0001b46 <intr_enable+0x27>
c0001b3b:	c7 45 f4 00 00 00 00 	movl   $0x0,-0xc(%ebp)
c0001b42:	fb                   	sti    
c0001b43:	8b 45 f4             	mov    -0xc(%ebp),%eax
c0001b46:	c9                   	leave  
c0001b47:	c3                   	ret    

c0001b48 <intr_disable>:
c0001b48:	55                   	push   %ebp
c0001b49:	89 e5                	mov    %esp,%ebp
c0001b4b:	83 ec 18             	sub    $0x18,%esp
c0001b4e:	e8 3c 00 00 00       	call   c0001b8f <intr_get_status>
c0001b53:	83 f8 01             	cmp    $0x1,%eax
c0001b56:	75 0d                	jne    c0001b65 <intr_disable+0x1d>
c0001b58:	c7 45 f4 01 00 00 00 	movl   $0x1,-0xc(%ebp)
c0001b5f:	fa                   	cli    
c0001b60:	8b 45 f4             	mov    -0xc(%ebp),%eax
c0001b63:	eb 0a                	jmp    c0001b6f <intr_disable+0x27>
c0001b65:	c7 45 f4 00 00 00 00 	movl   $0x0,-0xc(%ebp)
c0001b6c:	8b 45 f4             	mov    -0xc(%ebp),%eax
c0001b6f:	c9                   	leave  
c0001b70:	c3                   	ret    

c0001b71 <intr_set_status>:
c0001b71:	55                   	push   %ebp
c0001b72:	89 e5                	mov    %esp,%ebp
c0001b74:	83 ec 08             	sub    $0x8,%esp
c0001b77:	8b 45 08             	mov    0x8(%ebp),%eax
c0001b7a:	83 e0 01             	and    $0x1,%eax
c0001b7d:	85 c0                	test   %eax,%eax
c0001b7f:	74 07                	je     c0001b88 <intr_set_status+0x17>
c0001b81:	e8 99 ff ff ff       	call   c0001b1f <intr_enable>
c0001b86:	eb 05                	jmp    c0001b8d <intr_set_status+0x1c>
c0001b88:	e8 bb ff ff ff       	call   c0001b48 <intr_disable>
c0001b8d:	c9                   	leave  
c0001b8e:	c3                   	ret    

c0001b8f <intr_get_status>:
c0001b8f:	55                   	push   %ebp
c0001b90:	89 e5                	mov    %esp,%ebp
c0001b92:	83 ec 10             	sub    $0x10,%esp
c0001b95:	c7 45 fc 00 00 00 00 	movl   $0x0,-0x4(%ebp)
c0001b9c:	9c                   	pushf  
c0001b9d:	58                   	pop    %eax
c0001b9e:	89 45 fc             	mov    %eax,-0x4(%ebp)
c0001ba1:	8b 45 fc             	mov    -0x4(%ebp),%eax
c0001ba4:	25 00 02 00 00       	and    $0x200,%eax
c0001ba9:	c1 e8 09             	shr    $0x9,%eax
c0001bac:	c9                   	leave  
c0001bad:	c3                   	ret    

c0001bae <general_intr_handler>:
c0001bae:	55                   	push   %ebp
c0001baf:	89 e5                	mov    %esp,%ebp
c0001bb1:	83 ec 28             	sub    $0x28,%esp
c0001bb4:	8b 45 08             	mov    0x8(%ebp),%eax
c0001bb7:	88 45 e4             	mov    %al,-0x1c(%ebp)
c0001bba:	80 7d e4 27          	cmpb   $0x27,-0x1c(%ebp)
c0001bbe:	0f 84 bf 00 00 00    	je     c0001c83 <general_intr_handler+0xd5>
c0001bc4:	80 7d e4 2f          	cmpb   $0x2f,-0x1c(%ebp)
c0001bc8:	0f 84 b5 00 00 00    	je     c0001c83 <general_intr_handler+0xd5>
c0001bce:	83 ec 0c             	sub    $0xc,%esp
c0001bd1:	6a 00                	push   $0x0
c0001bd3:	e8 97 16 00 00       	call   c000326f <set_cursor>
c0001bd8:	83 c4 10             	add    $0x10,%esp
c0001bdb:	c7 45 f4 00 00 00 00 	movl   $0x0,-0xc(%ebp)
c0001be2:	eb 11                	jmp    c0001bf5 <general_intr_handler+0x47>
c0001be4:	83 ec 0c             	sub    $0xc,%esp
c0001be7:	6a 20                	push   $0x20
c0001be9:	e8 d2 15 00 00       	call   c00031c0 <put_char>
c0001bee:	83 c4 10             	add    $0x10,%esp
c0001bf1:	83 45 f4 01          	addl   $0x1,-0xc(%ebp)
c0001bf5:	81 7d f4 3f 01 00 00 	cmpl   $0x13f,-0xc(%ebp)
c0001bfc:	7e e6                	jle    c0001be4 <general_intr_handler+0x36>
c0001bfe:	83 ec 0c             	sub    $0xc,%esp
c0001c01:	6a 00                	push   $0x0
c0001c03:	e8 67 16 00 00       	call   c000326f <set_cursor>
c0001c08:	83 c4 10             	add    $0x10,%esp
c0001c0b:	83 ec 0c             	sub    $0xc,%esp
c0001c0e:	68 f4 33 00 c0       	push   $0xc00033f4
c0001c13:	e8 75 16 00 00       	call   c000328d <put_str>
c0001c18:	83 c4 10             	add    $0x10,%esp
c0001c1b:	83 ec 0c             	sub    $0xc,%esp
c0001c1e:	6a 58                	push   $0x58
c0001c20:	e8 4a 16 00 00       	call   c000326f <set_cursor>
c0001c25:	83 c4 10             	add    $0x10,%esp
c0001c28:	0f b6 45 e4          	movzbl -0x1c(%ebp),%eax
c0001c2c:	8b 04 85 60 54 00 c0 	mov    -0x3fffaba0(,%eax,4),%eax
c0001c33:	83 ec 0c             	sub    $0xc,%esp
c0001c36:	50                   	push   %eax
c0001c37:	e8 51 16 00 00       	call   c000328d <put_str>
c0001c3c:	83 c4 10             	add    $0x10,%esp
c0001c3f:	80 7d e4 0e          	cmpb   $0xe,-0x1c(%ebp)
c0001c43:	75 2c                	jne    c0001c71 <general_intr_handler+0xc3>
c0001c45:	c7 45 f0 00 00 00 00 	movl   $0x0,-0x10(%ebp)
c0001c4c:	0f 20 d0             	mov    %cr2,%eax
c0001c4f:	89 45 f0             	mov    %eax,-0x10(%ebp)
c0001c52:	83 ec 0c             	sub    $0xc,%esp
c0001c55:	68 17 34 00 c0       	push   $0xc0003417
c0001c5a:	e8 2e 16 00 00       	call   c000328d <put_str>
c0001c5f:	83 c4 10             	add    $0x10,%esp
c0001c62:	8b 45 f0             	mov    -0x10(%ebp),%eax
c0001c65:	83 ec 0c             	sub    $0xc,%esp
c0001c68:	50                   	push   %eax
c0001c69:	e8 3d 16 00 00       	call   c00032ab <put_int>
c0001c6e:	83 c4 10             	add    $0x10,%esp
c0001c71:	83 ec 0c             	sub    $0xc,%esp
c0001c74:	68 30 34 00 c0       	push   $0xc0003430
c0001c79:	e8 0f 16 00 00       	call   c000328d <put_str>
c0001c7e:	83 c4 10             	add    $0x10,%esp
c0001c81:	eb fe                	jmp    c0001c81 <general_intr_handler+0xd3>
c0001c83:	90                   	nop
c0001c84:	c9                   	leave  
c0001c85:	c3                   	ret    

c0001c86 <register_handler>:
c0001c86:	55                   	push   %ebp
c0001c87:	89 e5                	mov    %esp,%ebp
c0001c89:	83 ec 04             	sub    $0x4,%esp
c0001c8c:	8b 45 08             	mov    0x8(%ebp),%eax
c0001c8f:	88 45 fc             	mov    %al,-0x4(%ebp)
c0001c92:	0f b6 45 fc          	movzbl -0x4(%ebp),%eax
c0001c96:	8b 55 0c             	mov    0xc(%ebp),%edx
c0001c99:	89 14 85 00 55 00 c0 	mov    %edx,-0x3fffab00(,%eax,4)
c0001ca0:	90                   	nop
c0001ca1:	c9                   	leave  
c0001ca2:	c3                   	ret    

c0001ca3 <make_idt_desc>:
c0001ca3:	55                   	push   %ebp
c0001ca4:	89 e5                	mov    %esp,%ebp
c0001ca6:	83 ec 04             	sub    $0x4,%esp
c0001ca9:	8b 45 0c             	mov    0xc(%ebp),%eax
c0001cac:	88 45 fc             	mov    %al,-0x4(%ebp)
c0001caf:	8b 45 10             	mov    0x10(%ebp),%eax
c0001cb2:	89 c2                	mov    %eax,%edx
c0001cb4:	8b 45 08             	mov    0x8(%ebp),%eax
c0001cb7:	66 89 10             	mov    %dx,(%eax)
c0001cba:	8b 45 08             	mov    0x8(%ebp),%eax
c0001cbd:	66 c7 40 02 08 00    	movw   $0x8,0x2(%eax)
c0001cc3:	8b 45 08             	mov    0x8(%ebp),%eax
c0001cc6:	c6 40 04 00          	movb   $0x0,0x4(%eax)
c0001cca:	8b 45 08             	mov    0x8(%ebp),%eax
c0001ccd:	0f b6 55 fc          	movzbl -0x4(%ebp),%edx
c0001cd1:	88 50 05             	mov    %dl,0x5(%eax)
c0001cd4:	8b 45 10             	mov    0x10(%ebp),%eax
c0001cd7:	c1 e8 10             	shr    $0x10,%eax
c0001cda:	89 c2                	mov    %eax,%edx
c0001cdc:	8b 45 08             	mov    0x8(%ebp),%eax
c0001cdf:	66 89 50 06          	mov    %dx,0x6(%eax)
c0001ce3:	90                   	nop
c0001ce4:	c9                   	leave  
c0001ce5:	c3                   	ret    

c0001ce6 <exception_init>:
c0001ce6:	55                   	push   %ebp
c0001ce7:	89 e5                	mov    %esp,%ebp
c0001ce9:	83 ec 10             	sub    $0x10,%esp
c0001cec:	c7 45 fc 00 00 00 00 	movl   $0x0,-0x4(%ebp)
c0001cf3:	eb 20                	jmp    c0001d15 <exception_init+0x2f>
c0001cf5:	8b 45 fc             	mov    -0x4(%ebp),%eax
c0001cf8:	c7 04 85 00 55 00 c0 	movl   $0xc0001bae,-0x3fffab00(,%eax,4)
c0001cff:	ae 1b 00 c0 
c0001d03:	8b 45 fc             	mov    -0x4(%ebp),%eax
c0001d06:	c7 04 85 60 54 00 c0 	movl   $0xc000344f,-0x3fffaba0(,%eax,4)
c0001d0d:	4f 34 00 c0 
c0001d11:	83 45 fc 01          	addl   $0x1,-0x4(%ebp)
c0001d15:	83 7d fc 20          	cmpl   $0x20,-0x4(%ebp)
c0001d19:	7e da                	jle    c0001cf5 <exception_init+0xf>
c0001d1b:	c7 05 60 54 00 c0 57 	movl   $0xc0003457,0xc0005460
c0001d22:	34 00 c0 
c0001d25:	c7 05 64 54 00 c0 68 	movl   $0xc0003468,0xc0005464
c0001d2c:	34 00 c0 
c0001d2f:	c7 05 68 54 00 c0 7c 	movl   $0xc000347c,0xc0005468
c0001d36:	34 00 c0 
c0001d39:	c7 05 6c 54 00 c0 8a 	movl   $0xc000348a,0xc000546c
c0001d40:	34 00 c0 
c0001d43:	c7 05 70 54 00 c0 a3 	movl   $0xc00034a3,0xc0005470
c0001d4a:	34 00 c0 
c0001d4d:	c7 05 74 54 00 c0 bc 	movl   $0xc00034bc,0xc0005474
c0001d54:	34 00 c0 
c0001d57:	c7 05 78 54 00 c0 df 	movl   $0xc00034df,0xc0005478
c0001d5e:	34 00 c0 
c0001d61:	c7 05 7c 54 00 c0 fc 	movl   $0xc00034fc,0xc000547c
c0001d68:	34 00 c0 
c0001d6b:	c7 05 80 54 00 c0 1f 	movl   $0xc000351f,0xc0005480
c0001d72:	35 00 c0 
c0001d75:	c7 05 84 54 00 c0 3a 	movl   $0xc000353a,0xc0005484
c0001d7c:	35 00 c0 
c0001d7f:	c7 05 88 54 00 c0 56 	movl   $0xc0003556,0xc0005488
c0001d86:	35 00 c0 
c0001d89:	c7 05 8c 54 00 c0 70 	movl   $0xc0003570,0xc000548c
c0001d90:	35 00 c0 
c0001d93:	c7 05 90 54 00 c0 88 	movl   $0xc0003588,0xc0005490
c0001d9a:	35 00 c0 
c0001d9d:	c7 05 94 54 00 c0 a4 	movl   $0xc00035a4,0xc0005494
c0001da4:	35 00 c0 
c0001da7:	c7 05 98 54 00 c0 c5 	movl   $0xc00035c5,0xc0005498
c0001dae:	35 00 c0 
c0001db1:	c7 05 a0 54 00 c0 e0 	movl   $0xc00035e0,0xc00054a0
c0001db8:	35 00 c0 
c0001dbb:	c7 05 a4 54 00 c0 01 	movl   $0xc0003601,0xc00054a4
c0001dc2:	36 00 c0 
c0001dc5:	c7 05 a8 54 00 c0 1f 	movl   $0xc000361f,0xc00054a8
c0001dcc:	36 00 c0 
c0001dcf:	c7 05 ac 54 00 c0 3c 	movl   $0xc000363c,0xc00054ac
c0001dd6:	36 00 c0 
c0001dd9:	90                   	nop
c0001dda:	c9                   	leave  
c0001ddb:	c3                   	ret    

c0001ddc <idt_desc_init>:
c0001ddc:	55                   	push   %ebp
c0001ddd:	89 e5                	mov    %esp,%ebp
c0001ddf:	83 ec 18             	sub    $0x18,%esp
c0001de2:	c7 45 f4 00 00 00 00 	movl   $0x0,-0xc(%ebp)
c0001de9:	eb 29                	jmp    c0001e14 <idt_desc_init+0x38>
c0001deb:	8b 45 f4             	mov    -0xc(%ebp),%eax
c0001dee:	8b 04 85 9c 52 00 c0 	mov    -0x3fffad64(,%eax,4),%eax
c0001df5:	8b 55 f4             	mov    -0xc(%ebp),%edx
c0001df8:	c1 e2 03             	shl    $0x3,%edx
c0001dfb:	81 c2 40 53 00 c0    	add    $0xc0005340,%edx
c0001e01:	50                   	push   %eax
c0001e02:	68 8e 00 00 00       	push   $0x8e
c0001e07:	52                   	push   %edx
c0001e08:	e8 96 fe ff ff       	call   c0001ca3 <make_idt_desc>
c0001e0d:	83 c4 0c             	add    $0xc,%esp
c0001e10:	83 45 f4 01          	addl   $0x1,-0xc(%ebp)
c0001e14:	83 7d f4 20          	cmpl   $0x20,-0xc(%ebp)
c0001e18:	7e d1                	jle    c0001deb <idt_desc_init+0xf>
c0001e1a:	83 ec 0c             	sub    $0xc,%esp
c0001e1d:	68 5e 36 00 c0       	push   $0xc000365e
c0001e22:	e8 66 14 00 00       	call   c000328d <put_str>
c0001e27:	83 c4 10             	add    $0x10,%esp
c0001e2a:	83 ec 0c             	sub    $0xc,%esp
c0001e2d:	68 72 36 00 c0       	push   $0xc0003672
c0001e32:	e8 56 14 00 00       	call   c000328d <put_str>
c0001e37:	83 c4 10             	add    $0x10,%esp
c0001e3a:	90                   	nop
c0001e3b:	c9                   	leave  
c0001e3c:	c3                   	ret    

c0001e3d <pic_init>:
c0001e3d:	55                   	push   %ebp
c0001e3e:	89 e5                	mov    %esp,%ebp
c0001e40:	6a 11                	push   $0x11
c0001e42:	6a 20                	push   $0x20
c0001e44:	e8 b7 fc ff ff       	call   c0001b00 <outb>
c0001e49:	83 c4 08             	add    $0x8,%esp
c0001e4c:	6a 20                	push   $0x20
c0001e4e:	6a 21                	push   $0x21
c0001e50:	e8 ab fc ff ff       	call   c0001b00 <outb>
c0001e55:	83 c4 08             	add    $0x8,%esp
c0001e58:	6a 04                	push   $0x4
c0001e5a:	6a 21                	push   $0x21
c0001e5c:	e8 9f fc ff ff       	call   c0001b00 <outb>
c0001e61:	83 c4 08             	add    $0x8,%esp
c0001e64:	6a 01                	push   $0x1
c0001e66:	6a 21                	push   $0x21
c0001e68:	e8 93 fc ff ff       	call   c0001b00 <outb>
c0001e6d:	83 c4 08             	add    $0x8,%esp
c0001e70:	6a 11                	push   $0x11
c0001e72:	68 a0 00 00 00       	push   $0xa0
c0001e77:	e8 84 fc ff ff       	call   c0001b00 <outb>
c0001e7c:	83 c4 08             	add    $0x8,%esp
c0001e7f:	6a 28                	push   $0x28
c0001e81:	68 a1 00 00 00       	push   $0xa1
c0001e86:	e8 75 fc ff ff       	call   c0001b00 <outb>
c0001e8b:	83 c4 08             	add    $0x8,%esp
c0001e8e:	6a 02                	push   $0x2
c0001e90:	68 a1 00 00 00       	push   $0xa1
c0001e95:	e8 66 fc ff ff       	call   c0001b00 <outb>
c0001e9a:	83 c4 08             	add    $0x8,%esp
c0001e9d:	6a 01                	push   $0x1
c0001e9f:	68 a1 00 00 00       	push   $0xa1
c0001ea4:	e8 57 fc ff ff       	call   c0001b00 <outb>
c0001ea9:	83 c4 08             	add    $0x8,%esp
c0001eac:	68 fe 00 00 00       	push   $0xfe
c0001eb1:	6a 21                	push   $0x21
c0001eb3:	e8 48 fc ff ff       	call   c0001b00 <outb>
c0001eb8:	83 c4 08             	add    $0x8,%esp
c0001ebb:	68 ff 00 00 00       	push   $0xff
c0001ec0:	68 a1 00 00 00       	push   $0xa1
c0001ec5:	e8 36 fc ff ff       	call   c0001b00 <outb>
c0001eca:	83 c4 08             	add    $0x8,%esp
c0001ecd:	90                   	nop
c0001ece:	c9                   	leave  
c0001ecf:	c3                   	ret    

c0001ed0 <idt_init>:
c0001ed0:	55                   	push   %ebp
c0001ed1:	89 e5                	mov    %esp,%ebp
c0001ed3:	83 ec 18             	sub    $0x18,%esp
c0001ed6:	83 ec 0c             	sub    $0xc,%esp
c0001ed9:	68 81 36 00 c0       	push   $0xc0003681
c0001ede:	e8 aa 13 00 00       	call   c000328d <put_str>
c0001ee3:	83 c4 10             	add    $0x10,%esp
c0001ee6:	e8 f1 fe ff ff       	call   c0001ddc <idt_desc_init>
c0001eeb:	e8 f6 fd ff ff       	call   c0001ce6 <exception_init>
c0001ef0:	e8 48 ff ff ff       	call   c0001e3d <pic_init>
c0001ef5:	b8 40 53 00 c0       	mov    $0xc0005340,%eax
c0001efa:	c1 e0 10             	shl    $0x10,%eax
c0001efd:	0d 07 01 00 00       	or     $0x107,%eax
c0001f02:	ba 00 00 00 00       	mov    $0x0,%edx
c0001f07:	89 45 f0             	mov    %eax,-0x10(%ebp)
c0001f0a:	89 55 f4             	mov    %edx,-0xc(%ebp)
c0001f0d:	0f 01 5d f0          	lidtl  -0x10(%ebp)
c0001f11:	90                   	nop
c0001f12:	c9                   	leave  
c0001f13:	c3                   	ret    

c0001f14 <running_thread>:
c0001f14:	55                   	push   %ebp
c0001f15:	89 e5                	mov    %esp,%ebp
c0001f17:	83 ec 10             	sub    $0x10,%esp
c0001f1a:	89 e0                	mov    %esp,%eax
c0001f1c:	89 45 fc             	mov    %eax,-0x4(%ebp)
c0001f1f:	8b 45 fc             	mov    -0x4(%ebp),%eax
c0001f22:	25 00 f0 ff ff       	and    $0xfffff000,%eax
c0001f27:	c9                   	leave  
c0001f28:	c3                   	ret    

c0001f29 <schedule>:
c0001f29:	55                   	push   %ebp
c0001f2a:	89 e5                	mov    %esp,%ebp
c0001f2c:	83 ec 18             	sub    $0x18,%esp
c0001f2f:	e8 5b fc ff ff       	call   c0001b8f <intr_get_status>
c0001f34:	85 c0                	test   %eax,%eax
c0001f36:	74 19                	je     c0001f51 <schedule+0x28>
c0001f38:	68 94 36 00 c0       	push   $0xc0003694
c0001f3d:	68 dc 37 00 c0       	push   $0xc00037dc
c0001f42:	6a 1a                	push   $0x1a
c0001f44:	68 b2 36 00 c0       	push   $0xc00036b2
c0001f49:	e8 99 11 00 00       	call   c00030e7 <panic_spin>
c0001f4e:	83 c4 10             	add    $0x10,%esp
c0001f51:	e8 be ff ff ff       	call   c0001f14 <running_thread>
c0001f56:	89 45 f0             	mov    %eax,-0x10(%ebp)
c0001f59:	8b 45 f0             	mov    -0x10(%ebp),%eax
c0001f5c:	8b 40 04             	mov    0x4(%eax),%eax
c0001f5f:	85 c0                	test   %eax,%eax
c0001f61:	75 65                	jne    c0001fc8 <schedule+0x9f>
c0001f63:	8b 45 f0             	mov    -0x10(%ebp),%eax
c0001f66:	83 c0 20             	add    $0x20,%eax
c0001f69:	83 ec 08             	sub    $0x8,%esp
c0001f6c:	50                   	push   %eax
c0001f6d:	68 84 55 00 c0       	push   $0xc0005584
c0001f72:	e8 cf 04 00 00       	call   c0002446 <elem_find>
c0001f77:	83 c4 10             	add    $0x10,%esp
c0001f7a:	83 f0 01             	xor    $0x1,%eax
c0001f7d:	84 c0                	test   %al,%al
c0001f7f:	75 19                	jne    c0001f9a <schedule+0x71>
c0001f81:	68 bc 36 00 c0       	push   $0xc00036bc
c0001f86:	68 dc 37 00 c0       	push   $0xc00037dc
c0001f8b:	6a 1f                	push   $0x1f
c0001f8d:	68 b2 36 00 c0       	push   $0xc00036b2
c0001f92:	e8 50 11 00 00       	call   c00030e7 <panic_spin>
c0001f97:	83 c4 10             	add    $0x10,%esp
c0001f9a:	8b 45 f0             	mov    -0x10(%ebp),%eax
c0001f9d:	83 c0 20             	add    $0x20,%eax
c0001fa0:	83 ec 08             	sub    $0x8,%esp
c0001fa3:	50                   	push   %eax
c0001fa4:	68 84 55 00 c0       	push   $0xc0005584
c0001fa9:	e8 1e 04 00 00       	call   c00023cc <list_append>
c0001fae:	83 c4 10             	add    $0x10,%esp
c0001fb1:	8b 45 f0             	mov    -0x10(%ebp),%eax
c0001fb4:	0f b6 50 08          	movzbl 0x8(%eax),%edx
c0001fb8:	8b 45 f0             	mov    -0x10(%ebp),%eax
c0001fbb:	88 50 19             	mov    %dl,0x19(%eax)
c0001fbe:	8b 45 f0             	mov    -0x10(%ebp),%eax
c0001fc1:	c7 40 04 01 00 00 00 	movl   $0x1,0x4(%eax)
c0001fc8:	83 ec 0c             	sub    $0xc,%esp
c0001fcb:	68 84 55 00 c0       	push   $0xc0005584
c0001fd0:	e8 7e 03 00 00       	call   c0002353 <list_empty>
c0001fd5:	83 c4 10             	add    $0x10,%esp
c0001fd8:	83 f0 01             	xor    $0x1,%eax
c0001fdb:	84 c0                	test   %al,%al
c0001fdd:	75 19                	jne    c0001ff8 <schedule+0xcf>
c0001fdf:	68 f0 36 00 c0       	push   $0xc00036f0
c0001fe4:	68 dc 37 00 c0       	push   $0xc00037dc
c0001fe9:	6a 27                	push   $0x27
c0001feb:	68 b2 36 00 c0       	push   $0xc00036b2
c0001ff0:	e8 f2 10 00 00       	call   c00030e7 <panic_spin>
c0001ff5:	83 c4 10             	add    $0x10,%esp
c0001ff8:	c7 05 48 54 00 c0 00 	movl   $0x0,0xc0005448
c0001fff:	00 00 00 
c0002002:	83 ec 0c             	sub    $0xc,%esp
c0002005:	68 84 55 00 c0       	push   $0xc0005584
c000200a:	e8 15 04 00 00       	call   c0002424 <list_pop>
c000200f:	83 c4 10             	add    $0x10,%esp
c0002012:	a3 48 54 00 c0       	mov    %eax,0xc0005448
c0002017:	a1 48 54 00 c0       	mov    0xc0005448,%eax
c000201c:	83 e8 20             	sub    $0x20,%eax
c000201f:	89 45 f4             	mov    %eax,-0xc(%ebp)
c0002022:	8b 45 f4             	mov    -0xc(%ebp),%eax
c0002025:	c7 40 04 00 00 00 00 	movl   $0x0,0x4(%eax)
c000202c:	83 ec 08             	sub    $0x8,%esp
c000202f:	ff 75 f4             	pushl  -0xc(%ebp)
c0002032:	ff 75 f0             	pushl  -0x10(%ebp)
c0002035:	e8 d6 02 00 00       	call   c0002310 <switch_to>
c000203a:	83 c4 10             	add    $0x10,%esp
c000203d:	90                   	nop
c000203e:	c9                   	leave  
c000203f:	c3                   	ret    

c0002040 <kernel_thread>:
c0002040:	55                   	push   %ebp
c0002041:	89 e5                	mov    %esp,%ebp
c0002043:	83 ec 08             	sub    $0x8,%esp
c0002046:	e8 d4 fa ff ff       	call   c0001b1f <intr_enable>
c000204b:	83 ec 0c             	sub    $0xc,%esp
c000204e:	ff 75 0c             	pushl  0xc(%ebp)
c0002051:	8b 45 08             	mov    0x8(%ebp),%eax
c0002054:	ff d0                	call   *%eax
c0002056:	83 c4 10             	add    $0x10,%esp
c0002059:	90                   	nop
c000205a:	c9                   	leave  
c000205b:	c3                   	ret    

c000205c <thread_create>:
c000205c:	55                   	push   %ebp
c000205d:	89 e5                	mov    %esp,%ebp
c000205f:	83 ec 10             	sub    $0x10,%esp
c0002062:	8b 45 08             	mov    0x8(%ebp),%eax
c0002065:	8b 00                	mov    (%eax),%eax
c0002067:	8d 90 d0 fe ff ff    	lea    -0x130(%eax),%edx
c000206d:	8b 45 08             	mov    0x8(%ebp),%eax
c0002070:	89 10                	mov    %edx,(%eax)
c0002072:	8b 45 08             	mov    0x8(%ebp),%eax
c0002075:	8b 00                	mov    (%eax),%eax
c0002077:	8d 50 80             	lea    -0x80(%eax),%edx
c000207a:	8b 45 08             	mov    0x8(%ebp),%eax
c000207d:	89 10                	mov    %edx,(%eax)
c000207f:	8b 45 08             	mov    0x8(%ebp),%eax
c0002082:	8b 00                	mov    (%eax),%eax
c0002084:	89 45 fc             	mov    %eax,-0x4(%ebp)
c0002087:	8b 45 fc             	mov    -0x4(%ebp),%eax
c000208a:	c7 40 10 40 20 00 c0 	movl   $0xc0002040,0x10(%eax)
c0002091:	8b 45 fc             	mov    -0x4(%ebp),%eax
c0002094:	8b 55 0c             	mov    0xc(%ebp),%edx
c0002097:	89 50 18             	mov    %edx,0x18(%eax)
c000209a:	8b 45 fc             	mov    -0x4(%ebp),%eax
c000209d:	8b 55 10             	mov    0x10(%ebp),%edx
c00020a0:	89 50 1c             	mov    %edx,0x1c(%eax)
c00020a3:	8b 45 fc             	mov    -0x4(%ebp),%eax
c00020a6:	c7 40 04 00 00 00 00 	movl   $0x0,0x4(%eax)
c00020ad:	8b 45 fc             	mov    -0x4(%ebp),%eax
c00020b0:	8b 50 04             	mov    0x4(%eax),%edx
c00020b3:	8b 45 fc             	mov    -0x4(%ebp),%eax
c00020b6:	89 10                	mov    %edx,(%eax)
c00020b8:	8b 45 fc             	mov    -0x4(%ebp),%eax
c00020bb:	c7 40 08 00 00 00 00 	movl   $0x0,0x8(%eax)
c00020c2:	8b 45 fc             	mov    -0x4(%ebp),%eax
c00020c5:	8b 50 08             	mov    0x8(%eax),%edx
c00020c8:	8b 45 fc             	mov    -0x4(%ebp),%eax
c00020cb:	89 50 0c             	mov    %edx,0xc(%eax)
c00020ce:	90                   	nop
c00020cf:	c9                   	leave  
c00020d0:	c3                   	ret    

c00020d1 <init_thread>:
c00020d1:	55                   	push   %ebp
c00020d2:	89 e5                	mov    %esp,%ebp
c00020d4:	83 ec 08             	sub    $0x8,%esp
c00020d7:	83 ec 04             	sub    $0x4,%esp
c00020da:	6a 38                	push   $0x38
c00020dc:	6a 00                	push   $0x0
c00020de:	ff 75 08             	pushl  0x8(%ebp)
c00020e1:	e8 36 0c 00 00       	call   c0002d1c <memset>
c00020e6:	83 c4 10             	add    $0x10,%esp
c00020e9:	8b 45 08             	mov    0x8(%ebp),%eax
c00020ec:	83 c0 09             	add    $0x9,%eax
c00020ef:	83 ec 08             	sub    $0x8,%esp
c00020f2:	ff 75 0c             	pushl  0xc(%ebp)
c00020f5:	50                   	push   %eax
c00020f6:	e8 51 0d 00 00       	call   c0002e4c <strcpy>
c00020fb:	83 c4 10             	add    $0x10,%esp
c00020fe:	a1 a4 55 00 c0       	mov    0xc00055a4,%eax
c0002103:	39 45 08             	cmp    %eax,0x8(%ebp)
c0002106:	75 0c                	jne    c0002114 <init_thread+0x43>
c0002108:	8b 45 08             	mov    0x8(%ebp),%eax
c000210b:	c7 40 04 00 00 00 00 	movl   $0x0,0x4(%eax)
c0002112:	eb 0a                	jmp    c000211e <init_thread+0x4d>
c0002114:	8b 45 08             	mov    0x8(%ebp),%eax
c0002117:	c7 40 04 01 00 00 00 	movl   $0x1,0x4(%eax)
c000211e:	8b 45 10             	mov    0x10(%ebp),%eax
c0002121:	89 c2                	mov    %eax,%edx
c0002123:	8b 45 08             	mov    0x8(%ebp),%eax
c0002126:	88 50 08             	mov    %dl,0x8(%eax)
c0002129:	8b 45 10             	mov    0x10(%ebp),%eax
c000212c:	89 c2                	mov    %eax,%edx
c000212e:	8b 45 08             	mov    0x8(%ebp),%eax
c0002131:	88 50 19             	mov    %dl,0x19(%eax)
c0002134:	8b 45 08             	mov    0x8(%ebp),%eax
c0002137:	c7 40 1c 00 00 00 00 	movl   $0x0,0x1c(%eax)
c000213e:	8b 45 08             	mov    0x8(%ebp),%eax
c0002141:	c7 40 30 00 00 00 00 	movl   $0x0,0x30(%eax)
c0002148:	8b 45 08             	mov    0x8(%ebp),%eax
c000214b:	05 00 10 00 00       	add    $0x1000,%eax
c0002150:	89 c2                	mov    %eax,%edx
c0002152:	8b 45 08             	mov    0x8(%ebp),%eax
c0002155:	89 10                	mov    %edx,(%eax)
c0002157:	8b 45 08             	mov    0x8(%ebp),%eax
c000215a:	c7 40 34 23 02 89 19 	movl   $0x19890223,0x34(%eax)
c0002161:	90                   	nop
c0002162:	c9                   	leave  
c0002163:	c3                   	ret    

c0002164 <thread_start>:
c0002164:	55                   	push   %ebp
c0002165:	89 e5                	mov    %esp,%ebp
c0002167:	83 ec 18             	sub    $0x18,%esp
c000216a:	83 ec 0c             	sub    $0xc,%esp
c000216d:	6a 01                	push   $0x1
c000216f:	e8 9f 06 00 00       	call   c0002813 <get_kernel_pages>
c0002174:	83 c4 10             	add    $0x10,%esp
c0002177:	89 45 f4             	mov    %eax,-0xc(%ebp)
c000217a:	83 ec 04             	sub    $0x4,%esp
c000217d:	ff 75 0c             	pushl  0xc(%ebp)
c0002180:	ff 75 08             	pushl  0x8(%ebp)
c0002183:	ff 75 f4             	pushl  -0xc(%ebp)
c0002186:	e8 46 ff ff ff       	call   c00020d1 <init_thread>
c000218b:	83 c4 10             	add    $0x10,%esp
c000218e:	83 ec 04             	sub    $0x4,%esp
c0002191:	ff 75 14             	pushl  0x14(%ebp)
c0002194:	ff 75 10             	pushl  0x10(%ebp)
c0002197:	ff 75 f4             	pushl  -0xc(%ebp)
c000219a:	e8 bd fe ff ff       	call   c000205c <thread_create>
c000219f:	83 c4 10             	add    $0x10,%esp
c00021a2:	8b 45 f4             	mov    -0xc(%ebp),%eax
c00021a5:	83 c0 20             	add    $0x20,%eax
c00021a8:	83 ec 08             	sub    $0x8,%esp
c00021ab:	50                   	push   %eax
c00021ac:	68 84 55 00 c0       	push   $0xc0005584
c00021b1:	e8 90 02 00 00       	call   c0002446 <elem_find>
c00021b6:	83 c4 10             	add    $0x10,%esp
c00021b9:	83 f0 01             	xor    $0x1,%eax
c00021bc:	84 c0                	test   %al,%al
c00021be:	75 19                	jne    c00021d9 <thread_start+0x75>
c00021c0:	68 10 37 00 c0       	push   $0xc0003710
c00021c5:	68 e8 37 00 c0       	push   $0xc00037e8
c00021ca:	6a 61                	push   $0x61
c00021cc:	68 b2 36 00 c0       	push   $0xc00036b2
c00021d1:	e8 11 0f 00 00       	call   c00030e7 <panic_spin>
c00021d6:	83 c4 10             	add    $0x10,%esp
c00021d9:	8b 45 f4             	mov    -0xc(%ebp),%eax
c00021dc:	83 c0 20             	add    $0x20,%eax
c00021df:	83 ec 08             	sub    $0x8,%esp
c00021e2:	50                   	push   %eax
c00021e3:	68 84 55 00 c0       	push   $0xc0005584
c00021e8:	e8 df 01 00 00       	call   c00023cc <list_append>
c00021ed:	83 c4 10             	add    $0x10,%esp
c00021f0:	8b 45 f4             	mov    -0xc(%ebp),%eax
c00021f3:	83 c0 28             	add    $0x28,%eax
c00021f6:	83 ec 08             	sub    $0x8,%esp
c00021f9:	50                   	push   %eax
c00021fa:	68 94 55 00 c0       	push   $0xc0005594
c00021ff:	e8 42 02 00 00       	call   c0002446 <elem_find>
c0002204:	83 c4 10             	add    $0x10,%esp
c0002207:	83 f0 01             	xor    $0x1,%eax
c000220a:	84 c0                	test   %al,%al
c000220c:	75 19                	jne    c0002227 <thread_start+0xc3>
c000220e:	68 44 37 00 c0       	push   $0xc0003744
c0002213:	68 e8 37 00 c0       	push   $0xc00037e8
c0002218:	6a 64                	push   $0x64
c000221a:	68 b2 36 00 c0       	push   $0xc00036b2
c000221f:	e8 c3 0e 00 00       	call   c00030e7 <panic_spin>
c0002224:	83 c4 10             	add    $0x10,%esp
c0002227:	8b 45 f4             	mov    -0xc(%ebp),%eax
c000222a:	83 c0 28             	add    $0x28,%eax
c000222d:	83 ec 08             	sub    $0x8,%esp
c0002230:	50                   	push   %eax
c0002231:	68 94 55 00 c0       	push   $0xc0005594
c0002236:	e8 91 01 00 00       	call   c00023cc <list_append>
c000223b:	83 c4 10             	add    $0x10,%esp
c000223e:	8b 45 f4             	mov    -0xc(%ebp),%eax
c0002241:	c9                   	leave  
c0002242:	c3                   	ret    

c0002243 <make_main_thread>:
c0002243:	55                   	push   %ebp
c0002244:	89 e5                	mov    %esp,%ebp
c0002246:	83 ec 08             	sub    $0x8,%esp
c0002249:	e8 c6 fc ff ff       	call   c0001f14 <running_thread>
c000224e:	a3 a4 55 00 c0       	mov    %eax,0xc00055a4
c0002253:	a1 a4 55 00 c0       	mov    0xc00055a4,%eax
c0002258:	83 ec 04             	sub    $0x4,%esp
c000225b:	6a 1f                	push   $0x1f
c000225d:	68 77 37 00 c0       	push   $0xc0003777
c0002262:	50                   	push   %eax
c0002263:	e8 69 fe ff ff       	call   c00020d1 <init_thread>
c0002268:	83 c4 10             	add    $0x10,%esp
c000226b:	a1 a4 55 00 c0       	mov    0xc00055a4,%eax
c0002270:	83 c0 28             	add    $0x28,%eax
c0002273:	83 ec 08             	sub    $0x8,%esp
c0002276:	50                   	push   %eax
c0002277:	68 94 55 00 c0       	push   $0xc0005594
c000227c:	e8 c5 01 00 00       	call   c0002446 <elem_find>
c0002281:	83 c4 10             	add    $0x10,%esp
c0002284:	83 f0 01             	xor    $0x1,%eax
c0002287:	84 c0                	test   %al,%al
c0002289:	75 19                	jne    c00022a4 <make_main_thread+0x61>
c000228b:	68 7c 37 00 c0       	push   $0xc000377c
c0002290:	68 f8 37 00 c0       	push   $0xc00037f8
c0002295:	6a 71                	push   $0x71
c0002297:	68 b2 36 00 c0       	push   $0xc00036b2
c000229c:	e8 46 0e 00 00       	call   c00030e7 <panic_spin>
c00022a1:	83 c4 10             	add    $0x10,%esp
c00022a4:	a1 a4 55 00 c0       	mov    0xc00055a4,%eax
c00022a9:	83 c0 28             	add    $0x28,%eax
c00022ac:	83 ec 08             	sub    $0x8,%esp
c00022af:	50                   	push   %eax
c00022b0:	68 94 55 00 c0       	push   $0xc0005594
c00022b5:	e8 12 01 00 00       	call   c00023cc <list_append>
c00022ba:	83 c4 10             	add    $0x10,%esp
c00022bd:	90                   	nop
c00022be:	c9                   	leave  
c00022bf:	c3                   	ret    

c00022c0 <thread_init>:
c00022c0:	55                   	push   %ebp
c00022c1:	89 e5                	mov    %esp,%ebp
c00022c3:	83 ec 08             	sub    $0x8,%esp
c00022c6:	83 ec 0c             	sub    $0xc,%esp
c00022c9:	68 b4 37 00 c0       	push   $0xc00037b4
c00022ce:	e8 ba 0f 00 00       	call   c000328d <put_str>
c00022d3:	83 c4 10             	add    $0x10,%esp
c00022d6:	83 ec 0c             	sub    $0xc,%esp
c00022d9:	68 84 55 00 c0       	push   $0xc0005584
c00022de:	e8 42 00 00 00       	call   c0002325 <list_init>
c00022e3:	83 c4 10             	add    $0x10,%esp
c00022e6:	83 ec 0c             	sub    $0xc,%esp
c00022e9:	68 94 55 00 c0       	push   $0xc0005594
c00022ee:	e8 32 00 00 00       	call   c0002325 <list_init>
c00022f3:	83 c4 10             	add    $0x10,%esp
c00022f6:	e8 48 ff ff ff       	call   c0002243 <make_main_thread>
c00022fb:	83 ec 0c             	sub    $0xc,%esp
c00022fe:	68 c7 37 00 c0       	push   $0xc00037c7
c0002303:	e8 85 0f 00 00       	call   c000328d <put_str>
c0002308:	83 c4 10             	add    $0x10,%esp
c000230b:	90                   	nop
c000230c:	c9                   	leave  
c000230d:	c3                   	ret    
c000230e:	66 90                	xchg   %ax,%ax

c0002310 <switch_to>:
c0002310:	56                   	push   %esi
c0002311:	57                   	push   %edi
c0002312:	53                   	push   %ebx
c0002313:	55                   	push   %ebp
c0002314:	8b 44 24 14          	mov    0x14(%esp),%eax
c0002318:	89 20                	mov    %esp,(%eax)
c000231a:	8b 44 24 18          	mov    0x18(%esp),%eax
c000231e:	8b 20                	mov    (%eax),%esp
c0002320:	5d                   	pop    %ebp
c0002321:	5b                   	pop    %ebx
c0002322:	5f                   	pop    %edi
c0002323:	5e                   	pop    %esi
c0002324:	c3                   	ret    

c0002325 <list_init>:
c0002325:	55                   	push   %ebp
c0002326:	89 e5                	mov    %esp,%ebp
c0002328:	8b 45 08             	mov    0x8(%ebp),%eax
c000232b:	c7 00 00 00 00 00    	movl   $0x0,(%eax)
c0002331:	8b 45 08             	mov    0x8(%ebp),%eax
c0002334:	8d 50 08             	lea    0x8(%eax),%edx
c0002337:	8b 45 08             	mov    0x8(%ebp),%eax
c000233a:	89 50 04             	mov    %edx,0x4(%eax)
c000233d:	8b 55 08             	mov    0x8(%ebp),%edx
c0002340:	8b 45 08             	mov    0x8(%ebp),%eax
c0002343:	89 50 08             	mov    %edx,0x8(%eax)
c0002346:	8b 45 08             	mov    0x8(%ebp),%eax
c0002349:	c7 40 0c 00 00 00 00 	movl   $0x0,0xc(%eax)
c0002350:	90                   	nop
c0002351:	5d                   	pop    %ebp
c0002352:	c3                   	ret    

c0002353 <list_empty>:
c0002353:	55                   	push   %ebp
c0002354:	89 e5                	mov    %esp,%ebp
c0002356:	8b 45 08             	mov    0x8(%ebp),%eax
c0002359:	8b 40 04             	mov    0x4(%eax),%eax
c000235c:	8b 55 08             	mov    0x8(%ebp),%edx
c000235f:	83 c2 08             	add    $0x8,%edx
c0002362:	39 d0                	cmp    %edx,%eax
c0002364:	0f 94 c0             	sete   %al
c0002367:	5d                   	pop    %ebp
c0002368:	c3                   	ret    

c0002369 <list_insert_before>:
c0002369:	55                   	push   %ebp
c000236a:	89 e5                	mov    %esp,%ebp
c000236c:	83 ec 18             	sub    $0x18,%esp
c000236f:	e8 d4 f7 ff ff       	call   c0001b48 <intr_disable>
c0002374:	89 45 f4             	mov    %eax,-0xc(%ebp)
c0002377:	8b 45 08             	mov    0x8(%ebp),%eax
c000237a:	8b 00                	mov    (%eax),%eax
c000237c:	8b 55 0c             	mov    0xc(%ebp),%edx
c000237f:	89 50 04             	mov    %edx,0x4(%eax)
c0002382:	8b 45 08             	mov    0x8(%ebp),%eax
c0002385:	8b 10                	mov    (%eax),%edx
c0002387:	8b 45 0c             	mov    0xc(%ebp),%eax
c000238a:	89 10                	mov    %edx,(%eax)
c000238c:	8b 45 0c             	mov    0xc(%ebp),%eax
c000238f:	8b 55 08             	mov    0x8(%ebp),%edx
c0002392:	89 50 04             	mov    %edx,0x4(%eax)
c0002395:	8b 45 08             	mov    0x8(%ebp),%eax
c0002398:	8b 55 0c             	mov    0xc(%ebp),%edx
c000239b:	89 10                	mov    %edx,(%eax)
c000239d:	83 ec 0c             	sub    $0xc,%esp
c00023a0:	ff 75 f4             	pushl  -0xc(%ebp)
c00023a3:	e8 c9 f7 ff ff       	call   c0001b71 <intr_set_status>
c00023a8:	83 c4 10             	add    $0x10,%esp
c00023ab:	90                   	nop
c00023ac:	c9                   	leave  
c00023ad:	c3                   	ret    

c00023ae <list_push>:
c00023ae:	55                   	push   %ebp
c00023af:	89 e5                	mov    %esp,%ebp
c00023b1:	83 ec 08             	sub    $0x8,%esp
c00023b4:	8b 45 08             	mov    0x8(%ebp),%eax
c00023b7:	8b 40 04             	mov    0x4(%eax),%eax
c00023ba:	83 ec 08             	sub    $0x8,%esp
c00023bd:	ff 75 0c             	pushl  0xc(%ebp)
c00023c0:	50                   	push   %eax
c00023c1:	e8 a3 ff ff ff       	call   c0002369 <list_insert_before>
c00023c6:	83 c4 10             	add    $0x10,%esp
c00023c9:	90                   	nop
c00023ca:	c9                   	leave  
c00023cb:	c3                   	ret    

c00023cc <list_append>:
c00023cc:	55                   	push   %ebp
c00023cd:	89 e5                	mov    %esp,%ebp
c00023cf:	83 ec 08             	sub    $0x8,%esp
c00023d2:	8b 45 08             	mov    0x8(%ebp),%eax
c00023d5:	83 c0 08             	add    $0x8,%eax
c00023d8:	83 ec 08             	sub    $0x8,%esp
c00023db:	ff 75 0c             	pushl  0xc(%ebp)
c00023de:	50                   	push   %eax
c00023df:	e8 85 ff ff ff       	call   c0002369 <list_insert_before>
c00023e4:	83 c4 10             	add    $0x10,%esp
c00023e7:	90                   	nop
c00023e8:	c9                   	leave  
c00023e9:	c3                   	ret    

c00023ea <list_remove>:
c00023ea:	55                   	push   %ebp
c00023eb:	89 e5                	mov    %esp,%ebp
c00023ed:	83 ec 18             	sub    $0x18,%esp
c00023f0:	e8 53 f7 ff ff       	call   c0001b48 <intr_disable>
c00023f5:	89 45 f4             	mov    %eax,-0xc(%ebp)
c00023f8:	8b 45 08             	mov    0x8(%ebp),%eax
c00023fb:	8b 00                	mov    (%eax),%eax
c00023fd:	8b 55 08             	mov    0x8(%ebp),%edx
c0002400:	8b 52 04             	mov    0x4(%edx),%edx
c0002403:	89 50 04             	mov    %edx,0x4(%eax)
c0002406:	8b 45 08             	mov    0x8(%ebp),%eax
c0002409:	8b 40 04             	mov    0x4(%eax),%eax
c000240c:	8b 55 08             	mov    0x8(%ebp),%edx
c000240f:	8b 12                	mov    (%edx),%edx
c0002411:	89 10                	mov    %edx,(%eax)
c0002413:	83 ec 0c             	sub    $0xc,%esp
c0002416:	ff 75 f4             	pushl  -0xc(%ebp)
c0002419:	e8 53 f7 ff ff       	call   c0001b71 <intr_set_status>
c000241e:	83 c4 10             	add    $0x10,%esp
c0002421:	90                   	nop
c0002422:	c9                   	leave  
c0002423:	c3                   	ret    

c0002424 <list_pop>:
c0002424:	55                   	push   %ebp
c0002425:	89 e5                	mov    %esp,%ebp
c0002427:	83 ec 18             	sub    $0x18,%esp
c000242a:	8b 45 08             	mov    0x8(%ebp),%eax
c000242d:	8b 40 04             	mov    0x4(%eax),%eax
c0002430:	89 45 f4             	mov    %eax,-0xc(%ebp)
c0002433:	83 ec 0c             	sub    $0xc,%esp
c0002436:	ff 75 f4             	pushl  -0xc(%ebp)
c0002439:	e8 ac ff ff ff       	call   c00023ea <list_remove>
c000243e:	83 c4 10             	add    $0x10,%esp
c0002441:	8b 45 f4             	mov    -0xc(%ebp),%eax
c0002444:	c9                   	leave  
c0002445:	c3                   	ret    

c0002446 <elem_find>:
c0002446:	55                   	push   %ebp
c0002447:	89 e5                	mov    %esp,%ebp
c0002449:	83 ec 10             	sub    $0x10,%esp
c000244c:	8b 45 08             	mov    0x8(%ebp),%eax
c000244f:	8b 40 04             	mov    0x4(%eax),%eax
c0002452:	89 45 fc             	mov    %eax,-0x4(%ebp)
c0002455:	eb 18                	jmp    c000246f <elem_find+0x29>
c0002457:	8b 45 fc             	mov    -0x4(%ebp),%eax
c000245a:	3b 45 0c             	cmp    0xc(%ebp),%eax
c000245d:	75 07                	jne    c0002466 <elem_find+0x20>
c000245f:	b8 01 00 00 00       	mov    $0x1,%eax
c0002464:	eb 19                	jmp    c000247f <elem_find+0x39>
c0002466:	8b 45 fc             	mov    -0x4(%ebp),%eax
c0002469:	8b 40 04             	mov    0x4(%eax),%eax
c000246c:	89 45 fc             	mov    %eax,-0x4(%ebp)
c000246f:	8b 45 08             	mov    0x8(%ebp),%eax
c0002472:	83 c0 08             	add    $0x8,%eax
c0002475:	3b 45 fc             	cmp    -0x4(%ebp),%eax
c0002478:	75 dd                	jne    c0002457 <elem_find+0x11>
c000247a:	b8 00 00 00 00       	mov    $0x0,%eax
c000247f:	c9                   	leave  
c0002480:	c3                   	ret    

c0002481 <list_traversal>:
c0002481:	55                   	push   %ebp
c0002482:	89 e5                	mov    %esp,%ebp
c0002484:	83 ec 18             	sub    $0x18,%esp
c0002487:	8b 45 08             	mov    0x8(%ebp),%eax
c000248a:	8b 40 04             	mov    0x4(%eax),%eax
c000248d:	89 45 f4             	mov    %eax,-0xc(%ebp)
c0002490:	ff 75 08             	pushl  0x8(%ebp)
c0002493:	e8 bb fe ff ff       	call   c0002353 <list_empty>
c0002498:	83 c4 04             	add    $0x4,%esp
c000249b:	84 c0                	test   %al,%al
c000249d:	74 2a                	je     c00024c9 <list_traversal+0x48>
c000249f:	b8 00 00 00 00       	mov    $0x0,%eax
c00024a4:	eb 33                	jmp    c00024d9 <list_traversal+0x58>
c00024a6:	83 ec 08             	sub    $0x8,%esp
c00024a9:	ff 75 10             	pushl  0x10(%ebp)
c00024ac:	ff 75 f4             	pushl  -0xc(%ebp)
c00024af:	8b 45 0c             	mov    0xc(%ebp),%eax
c00024b2:	ff d0                	call   *%eax
c00024b4:	83 c4 10             	add    $0x10,%esp
c00024b7:	84 c0                	test   %al,%al
c00024b9:	74 05                	je     c00024c0 <list_traversal+0x3f>
c00024bb:	8b 45 f4             	mov    -0xc(%ebp),%eax
c00024be:	eb 19                	jmp    c00024d9 <list_traversal+0x58>
c00024c0:	8b 45 f4             	mov    -0xc(%ebp),%eax
c00024c3:	8b 40 04             	mov    0x4(%eax),%eax
c00024c6:	89 45 f4             	mov    %eax,-0xc(%ebp)
c00024c9:	8b 45 08             	mov    0x8(%ebp),%eax
c00024cc:	83 c0 08             	add    $0x8,%eax
c00024cf:	3b 45 f4             	cmp    -0xc(%ebp),%eax
c00024d2:	75 d2                	jne    c00024a6 <list_traversal+0x25>
c00024d4:	b8 00 00 00 00       	mov    $0x0,%eax
c00024d9:	c9                   	leave  
c00024da:	c3                   	ret    

c00024db <list_len>:
c00024db:	55                   	push   %ebp
c00024dc:	89 e5                	mov    %esp,%ebp
c00024de:	83 ec 10             	sub    $0x10,%esp
c00024e1:	8b 45 08             	mov    0x8(%ebp),%eax
c00024e4:	8b 40 04             	mov    0x4(%eax),%eax
c00024e7:	89 45 f8             	mov    %eax,-0x8(%ebp)
c00024ea:	c7 45 fc 00 00 00 00 	movl   $0x0,-0x4(%ebp)
c00024f1:	eb 0d                	jmp    c0002500 <list_len+0x25>
c00024f3:	83 45 fc 01          	addl   $0x1,-0x4(%ebp)
c00024f7:	8b 45 f8             	mov    -0x8(%ebp),%eax
c00024fa:	8b 40 04             	mov    0x4(%eax),%eax
c00024fd:	89 45 f8             	mov    %eax,-0x8(%ebp)
c0002500:	8b 45 08             	mov    0x8(%ebp),%eax
c0002503:	83 c0 08             	add    $0x8,%eax
c0002506:	3b 45 f8             	cmp    -0x8(%ebp),%eax
c0002509:	75 e8                	jne    c00024f3 <list_len+0x18>
c000250b:	8b 45 fc             	mov    -0x4(%ebp),%eax
c000250e:	c9                   	leave  
c000250f:	c3                   	ret    

c0002510 <vaddr_get>:
c0002510:	55                   	push   %ebp
c0002511:	89 e5                	mov    %esp,%ebp
c0002513:	83 ec 18             	sub    $0x18,%esp
c0002516:	c7 45 ec 00 00 00 00 	movl   $0x0,-0x14(%ebp)
c000251d:	c7 45 f4 ff ff ff ff 	movl   $0xffffffff,-0xc(%ebp)
c0002524:	c7 45 f0 00 00 00 00 	movl   $0x0,-0x10(%ebp)
c000252b:	83 7d 08 01          	cmpl   $0x1,0x8(%ebp)
c000252f:	75 5c                	jne    c000258d <vaddr_get+0x7d>
c0002531:	83 ec 08             	sub    $0x8,%esp
c0002534:	ff 75 0c             	pushl  0xc(%ebp)
c0002537:	68 b8 55 00 c0       	push   $0xc00055b8
c000253c:	e8 f2 05 00 00       	call   c0002b33 <bitmap_scan>
c0002541:	83 c4 10             	add    $0x10,%esp
c0002544:	89 45 f4             	mov    %eax,-0xc(%ebp)
c0002547:	83 7d f4 ff          	cmpl   $0xffffffff,-0xc(%ebp)
c000254b:	75 28                	jne    c0002575 <vaddr_get+0x65>
c000254d:	b8 00 00 00 00       	mov    $0x0,%eax
c0002552:	eb 3c                	jmp    c0002590 <vaddr_get+0x80>
c0002554:	8b 45 f0             	mov    -0x10(%ebp),%eax
c0002557:	8d 50 01             	lea    0x1(%eax),%edx
c000255a:	89 55 f0             	mov    %edx,-0x10(%ebp)
c000255d:	8b 55 f4             	mov    -0xc(%ebp),%edx
c0002560:	01 d0                	add    %edx,%eax
c0002562:	83 ec 04             	sub    $0x4,%esp
c0002565:	6a 01                	push   $0x1
c0002567:	50                   	push   %eax
c0002568:	68 b8 55 00 c0       	push   $0xc00055b8
c000256d:	e8 f9 06 00 00       	call   c0002c6b <bitmap_set>
c0002572:	83 c4 10             	add    $0x10,%esp
c0002575:	8b 45 f0             	mov    -0x10(%ebp),%eax
c0002578:	3b 45 0c             	cmp    0xc(%ebp),%eax
c000257b:	72 d7                	jb     c0002554 <vaddr_get+0x44>
c000257d:	a1 c0 55 00 c0       	mov    0xc00055c0,%eax
c0002582:	8b 55 f4             	mov    -0xc(%ebp),%edx
c0002585:	c1 e2 0c             	shl    $0xc,%edx
c0002588:	01 d0                	add    %edx,%eax
c000258a:	89 45 ec             	mov    %eax,-0x14(%ebp)
c000258d:	8b 45 ec             	mov    -0x14(%ebp),%eax
c0002590:	c9                   	leave  
c0002591:	c3                   	ret    

c0002592 <pte_ptr>:
c0002592:	55                   	push   %ebp
c0002593:	89 e5                	mov    %esp,%ebp
c0002595:	83 ec 10             	sub    $0x10,%esp
c0002598:	8b 45 08             	mov    0x8(%ebp),%eax
c000259b:	25 00 00 c0 ff       	and    $0xffc00000,%eax
c00025a0:	c1 e8 0a             	shr    $0xa,%eax
c00025a3:	89 c2                	mov    %eax,%edx
c00025a5:	8b 45 08             	mov    0x8(%ebp),%eax
c00025a8:	25 00 f0 3f 00       	and    $0x3ff000,%eax
c00025ad:	c1 e8 0c             	shr    $0xc,%eax
c00025b0:	c1 e0 02             	shl    $0x2,%eax
c00025b3:	01 d0                	add    %edx,%eax
c00025b5:	2d 00 00 40 00       	sub    $0x400000,%eax
c00025ba:	89 45 fc             	mov    %eax,-0x4(%ebp)
c00025bd:	8b 45 fc             	mov    -0x4(%ebp),%eax
c00025c0:	c9                   	leave  
c00025c1:	c3                   	ret    

c00025c2 <pde_ptr>:
c00025c2:	55                   	push   %ebp
c00025c3:	89 e5                	mov    %esp,%ebp
c00025c5:	83 ec 10             	sub    $0x10,%esp
c00025c8:	8b 45 08             	mov    0x8(%ebp),%eax
c00025cb:	c1 e8 16             	shr    $0x16,%eax
c00025ce:	05 00 fc ff 3f       	add    $0x3ffffc00,%eax
c00025d3:	c1 e0 02             	shl    $0x2,%eax
c00025d6:	89 45 fc             	mov    %eax,-0x4(%ebp)
c00025d9:	8b 45 fc             	mov    -0x4(%ebp),%eax
c00025dc:	c9                   	leave  
c00025dd:	c3                   	ret    

c00025de <palloc>:
c00025de:	55                   	push   %ebp
c00025df:	89 e5                	mov    %esp,%ebp
c00025e1:	83 ec 18             	sub    $0x18,%esp
c00025e4:	8b 45 08             	mov    0x8(%ebp),%eax
c00025e7:	83 ec 08             	sub    $0x8,%esp
c00025ea:	6a 01                	push   $0x1
c00025ec:	50                   	push   %eax
c00025ed:	e8 41 05 00 00       	call   c0002b33 <bitmap_scan>
c00025f2:	83 c4 10             	add    $0x10,%esp
c00025f5:	89 45 f0             	mov    %eax,-0x10(%ebp)
c00025f8:	83 7d f0 ff          	cmpl   $0xffffffff,-0x10(%ebp)
c00025fc:	75 07                	jne    c0002605 <palloc+0x27>
c00025fe:	b8 00 00 00 00       	mov    $0x0,%eax
c0002603:	eb 2b                	jmp    c0002630 <palloc+0x52>
c0002605:	8b 55 f0             	mov    -0x10(%ebp),%edx
c0002608:	8b 45 08             	mov    0x8(%ebp),%eax
c000260b:	83 ec 04             	sub    $0x4,%esp
c000260e:	6a 01                	push   $0x1
c0002610:	52                   	push   %edx
c0002611:	50                   	push   %eax
c0002612:	e8 54 06 00 00       	call   c0002c6b <bitmap_set>
c0002617:	83 c4 10             	add    $0x10,%esp
c000261a:	8b 45 f0             	mov    -0x10(%ebp),%eax
c000261d:	c1 e0 0c             	shl    $0xc,%eax
c0002620:	89 c2                	mov    %eax,%edx
c0002622:	8b 45 08             	mov    0x8(%ebp),%eax
c0002625:	8b 40 08             	mov    0x8(%eax),%eax
c0002628:	01 d0                	add    %edx,%eax
c000262a:	89 45 f4             	mov    %eax,-0xc(%ebp)
c000262d:	8b 45 f4             	mov    -0xc(%ebp),%eax
c0002630:	c9                   	leave  
c0002631:	c3                   	ret    

c0002632 <page_table_add>:
c0002632:	55                   	push   %ebp
c0002633:	89 e5                	mov    %esp,%ebp
c0002635:	83 ec 28             	sub    $0x28,%esp
c0002638:	8b 45 08             	mov    0x8(%ebp),%eax
c000263b:	89 45 e4             	mov    %eax,-0x1c(%ebp)
c000263e:	8b 45 0c             	mov    0xc(%ebp),%eax
c0002641:	89 45 e8             	mov    %eax,-0x18(%ebp)
c0002644:	ff 75 e4             	pushl  -0x1c(%ebp)
c0002647:	e8 76 ff ff ff       	call   c00025c2 <pde_ptr>
c000264c:	83 c4 04             	add    $0x4,%esp
c000264f:	89 45 ec             	mov    %eax,-0x14(%ebp)
c0002652:	ff 75 e4             	pushl  -0x1c(%ebp)
c0002655:	e8 38 ff ff ff       	call   c0002592 <pte_ptr>
c000265a:	83 c4 04             	add    $0x4,%esp
c000265d:	89 45 f0             	mov    %eax,-0x10(%ebp)
c0002660:	8b 45 ec             	mov    -0x14(%ebp),%eax
c0002663:	8b 00                	mov    (%eax),%eax
c0002665:	83 e0 01             	and    $0x1,%eax
c0002668:	85 c0                	test   %eax,%eax
c000266a:	74 68                	je     c00026d4 <page_table_add+0xa2>
c000266c:	8b 45 f0             	mov    -0x10(%ebp),%eax
c000266f:	8b 00                	mov    (%eax),%eax
c0002671:	83 e0 01             	and    $0x1,%eax
c0002674:	85 c0                	test   %eax,%eax
c0002676:	74 19                	je     c0002691 <page_table_add+0x5f>
c0002678:	68 0c 38 00 c0       	push   $0xc000380c
c000267d:	68 50 39 00 c0       	push   $0xc0003950
c0002682:	6a 57                	push   $0x57
c0002684:	68 21 38 00 c0       	push   $0xc0003821
c0002689:	e8 59 0a 00 00       	call   c00030e7 <panic_spin>
c000268e:	83 c4 10             	add    $0x10,%esp
c0002691:	8b 45 f0             	mov    -0x10(%ebp),%eax
c0002694:	8b 00                	mov    (%eax),%eax
c0002696:	85 c0                	test   %eax,%eax
c0002698:	75 12                	jne    c00026ac <page_table_add+0x7a>
c000269a:	8b 45 e8             	mov    -0x18(%ebp),%eax
c000269d:	83 c8 07             	or     $0x7,%eax
c00026a0:	89 c2                	mov    %eax,%edx
c00026a2:	8b 45 f0             	mov    -0x10(%ebp),%eax
c00026a5:	89 10                	mov    %edx,(%eax)
c00026a7:	e9 95 00 00 00       	jmp    c0002741 <page_table_add+0x10f>
c00026ac:	68 2a 38 00 c0       	push   $0xc000382a
c00026b1:	68 50 39 00 c0       	push   $0xc0003950
c00026b6:	6a 5b                	push   $0x5b
c00026b8:	68 21 38 00 c0       	push   $0xc0003821
c00026bd:	e8 25 0a 00 00       	call   c00030e7 <panic_spin>
c00026c2:	83 c4 10             	add    $0x10,%esp
c00026c5:	8b 45 e8             	mov    -0x18(%ebp),%eax
c00026c8:	83 c8 07             	or     $0x7,%eax
c00026cb:	89 c2                	mov    %eax,%edx
c00026cd:	8b 45 f0             	mov    -0x10(%ebp),%eax
c00026d0:	89 10                	mov    %edx,(%eax)
c00026d2:	eb 6d                	jmp    c0002741 <page_table_add+0x10f>
c00026d4:	83 ec 0c             	sub    $0xc,%esp
c00026d7:	68 c4 55 00 c0       	push   $0xc00055c4
c00026dc:	e8 fd fe ff ff       	call   c00025de <palloc>
c00026e1:	83 c4 10             	add    $0x10,%esp
c00026e4:	89 45 f4             	mov    %eax,-0xc(%ebp)
c00026e7:	8b 45 f4             	mov    -0xc(%ebp),%eax
c00026ea:	83 c8 07             	or     $0x7,%eax
c00026ed:	89 c2                	mov    %eax,%edx
c00026ef:	8b 45 ec             	mov    -0x14(%ebp),%eax
c00026f2:	89 10                	mov    %edx,(%eax)
c00026f4:	8b 45 f0             	mov    -0x10(%ebp),%eax
c00026f7:	25 00 f0 ff ff       	and    $0xfffff000,%eax
c00026fc:	83 ec 04             	sub    $0x4,%esp
c00026ff:	68 00 10 00 00       	push   $0x1000
c0002704:	6a 00                	push   $0x0
c0002706:	50                   	push   %eax
c0002707:	e8 10 06 00 00       	call   c0002d1c <memset>
c000270c:	83 c4 10             	add    $0x10,%esp
c000270f:	8b 45 f0             	mov    -0x10(%ebp),%eax
c0002712:	8b 00                	mov    (%eax),%eax
c0002714:	83 e0 01             	and    $0x1,%eax
c0002717:	85 c0                	test   %eax,%eax
c0002719:	74 19                	je     c0002734 <page_table_add+0x102>
c000271b:	68 0c 38 00 c0       	push   $0xc000380c
c0002720:	68 50 39 00 c0       	push   $0xc0003950
c0002725:	6a 64                	push   $0x64
c0002727:	68 21 38 00 c0       	push   $0xc0003821
c000272c:	e8 b6 09 00 00       	call   c00030e7 <panic_spin>
c0002731:	83 c4 10             	add    $0x10,%esp
c0002734:	8b 45 e8             	mov    -0x18(%ebp),%eax
c0002737:	83 c8 07             	or     $0x7,%eax
c000273a:	89 c2                	mov    %eax,%edx
c000273c:	8b 45 f0             	mov    -0x10(%ebp),%eax
c000273f:	89 10                	mov    %edx,(%eax)
c0002741:	90                   	nop
c0002742:	c9                   	leave  
c0002743:	c3                   	ret    

c0002744 <malloc_page>:
c0002744:	55                   	push   %ebp
c0002745:	89 e5                	mov    %esp,%ebp
c0002747:	83 ec 28             	sub    $0x28,%esp
c000274a:	83 7d 0c 00          	cmpl   $0x0,0xc(%ebp)
c000274e:	74 09                	je     c0002759 <malloc_page+0x15>
c0002750:	81 7d 0c ff 0e 00 00 	cmpl   $0xeff,0xc(%ebp)
c0002757:	76 19                	jbe    c0002772 <malloc_page+0x2e>
c0002759:	68 35 38 00 c0       	push   $0xc0003835
c000275e:	68 60 39 00 c0       	push   $0xc0003960
c0002763:	6a 6d                	push   $0x6d
c0002765:	68 21 38 00 c0       	push   $0xc0003821
c000276a:	e8 78 09 00 00       	call   c00030e7 <panic_spin>
c000276f:	83 c4 10             	add    $0x10,%esp
c0002772:	83 ec 08             	sub    $0x8,%esp
c0002775:	ff 75 0c             	pushl  0xc(%ebp)
c0002778:	ff 75 08             	pushl  0x8(%ebp)
c000277b:	e8 90 fd ff ff       	call   c0002510 <vaddr_get>
c0002780:	83 c4 10             	add    $0x10,%esp
c0002783:	89 45 ec             	mov    %eax,-0x14(%ebp)
c0002786:	83 7d ec 00          	cmpl   $0x0,-0x14(%ebp)
c000278a:	75 07                	jne    c0002793 <malloc_page+0x4f>
c000278c:	b8 00 00 00 00       	mov    $0x0,%eax
c0002791:	eb 7e                	jmp    c0002811 <malloc_page+0xcd>
c0002793:	8b 45 ec             	mov    -0x14(%ebp),%eax
c0002796:	89 45 e4             	mov    %eax,-0x1c(%ebp)
c0002799:	8b 45 0c             	mov    0xc(%ebp),%eax
c000279c:	89 45 e8             	mov    %eax,-0x18(%ebp)
c000279f:	8b 45 08             	mov    0x8(%ebp),%eax
c00027a2:	83 e0 01             	and    $0x1,%eax
c00027a5:	85 c0                	test   %eax,%eax
c00027a7:	74 07                	je     c00027b0 <malloc_page+0x6c>
c00027a9:	b8 c4 55 00 c0       	mov    $0xc00055c4,%eax
c00027ae:	eb 05                	jmp    c00027b5 <malloc_page+0x71>
c00027b0:	b8 a8 55 00 c0       	mov    $0xc00055a8,%eax
c00027b5:	89 45 f0             	mov    %eax,-0x10(%ebp)
c00027b8:	eb 47                	jmp    c0002801 <malloc_page+0xbd>
c00027ba:	83 ec 0c             	sub    $0xc,%esp
c00027bd:	ff 75 f0             	pushl  -0x10(%ebp)
c00027c0:	e8 19 fe ff ff       	call   c00025de <palloc>
c00027c5:	83 c4 10             	add    $0x10,%esp
c00027c8:	89 45 f4             	mov    %eax,-0xc(%ebp)
c00027cb:	83 7d f4 00          	cmpl   $0x0,-0xc(%ebp)
c00027cf:	75 17                	jne    c00027e8 <malloc_page+0xa4>
c00027d1:	83 ec 0c             	sub    $0xc,%esp
c00027d4:	68 51 38 00 c0       	push   $0xc0003851
c00027d9:	e8 af 0a 00 00       	call   c000328d <put_str>
c00027de:	83 c4 10             	add    $0x10,%esp
c00027e1:	b8 00 00 00 00       	mov    $0x0,%eax
c00027e6:	eb 29                	jmp    c0002811 <malloc_page+0xcd>
c00027e8:	8b 45 e4             	mov    -0x1c(%ebp),%eax
c00027eb:	83 ec 08             	sub    $0x8,%esp
c00027ee:	ff 75 f4             	pushl  -0xc(%ebp)
c00027f1:	50                   	push   %eax
c00027f2:	e8 3b fe ff ff       	call   c0002632 <page_table_add>
c00027f7:	83 c4 10             	add    $0x10,%esp
c00027fa:	81 45 e4 00 10 00 00 	addl   $0x1000,-0x1c(%ebp)
c0002801:	8b 45 e8             	mov    -0x18(%ebp),%eax
c0002804:	8d 50 ff             	lea    -0x1(%eax),%edx
c0002807:	89 55 e8             	mov    %edx,-0x18(%ebp)
c000280a:	85 c0                	test   %eax,%eax
c000280c:	75 ac                	jne    c00027ba <malloc_page+0x76>
c000280e:	8b 45 ec             	mov    -0x14(%ebp),%eax
c0002811:	c9                   	leave  
c0002812:	c3                   	ret    

c0002813 <get_kernel_pages>:
c0002813:	55                   	push   %ebp
c0002814:	89 e5                	mov    %esp,%ebp
c0002816:	83 ec 18             	sub    $0x18,%esp
c0002819:	83 ec 08             	sub    $0x8,%esp
c000281c:	ff 75 08             	pushl  0x8(%ebp)
c000281f:	6a 01                	push   $0x1
c0002821:	e8 1e ff ff ff       	call   c0002744 <malloc_page>
c0002826:	83 c4 10             	add    $0x10,%esp
c0002829:	89 45 f4             	mov    %eax,-0xc(%ebp)
c000282c:	83 7d f4 00          	cmpl   $0x0,-0xc(%ebp)
c0002830:	74 17                	je     c0002849 <get_kernel_pages+0x36>
c0002832:	8b 45 08             	mov    0x8(%ebp),%eax
c0002835:	c1 e0 0c             	shl    $0xc,%eax
c0002838:	83 ec 04             	sub    $0x4,%esp
c000283b:	50                   	push   %eax
c000283c:	6a 00                	push   $0x0
c000283e:	ff 75 f4             	pushl  -0xc(%ebp)
c0002841:	e8 d6 04 00 00       	call   c0002d1c <memset>
c0002846:	83 c4 10             	add    $0x10,%esp
c0002849:	83 ec 0c             	sub    $0xc,%esp
c000284c:	68 69 38 00 c0       	push   $0xc0003869
c0002851:	e8 37 0a 00 00       	call   c000328d <put_str>
c0002856:	83 c4 10             	add    $0x10,%esp
c0002859:	8b 45 f4             	mov    -0xc(%ebp),%eax
c000285c:	83 ec 0c             	sub    $0xc,%esp
c000285f:	50                   	push   %eax
c0002860:	e8 46 0a 00 00       	call   c00032ab <put_int>
c0002865:	83 c4 10             	add    $0x10,%esp
c0002868:	83 ec 0c             	sub    $0xc,%esp
c000286b:	68 81 38 00 c0       	push   $0xc0003881
c0002870:	e8 18 0a 00 00       	call   c000328d <put_str>
c0002875:	83 c4 10             	add    $0x10,%esp
c0002878:	8b 45 f4             	mov    -0xc(%ebp),%eax
c000287b:	c9                   	leave  
c000287c:	c3                   	ret    

c000287d <mem_pool_init>:
c000287d:	55                   	push   %ebp
c000287e:	89 e5                	mov    %esp,%ebp
c0002880:	83 ec 38             	sub    $0x38,%esp
c0002883:	83 ec 0c             	sub    $0xc,%esp
c0002886:	68 83 38 00 c0       	push   $0xc0003883
c000288b:	e8 fd 09 00 00       	call   c000328d <put_str>
c0002890:	83 c4 10             	add    $0x10,%esp
c0002893:	c7 45 dc 00 00 10 00 	movl   $0x100000,-0x24(%ebp)
c000289a:	8b 45 dc             	mov    -0x24(%ebp),%eax
c000289d:	05 00 00 10 00       	add    $0x100000,%eax
c00028a2:	89 45 e0             	mov    %eax,-0x20(%ebp)
c00028a5:	8b 45 08             	mov    0x8(%ebp),%eax
c00028a8:	2b 45 e0             	sub    -0x20(%ebp),%eax
c00028ab:	89 45 e4             	mov    %eax,-0x1c(%ebp)
c00028ae:	8b 45 e4             	mov    -0x1c(%ebp),%eax
c00028b1:	c1 e8 0c             	shr    $0xc,%eax
c00028b4:	66 89 45 d6          	mov    %ax,-0x2a(%ebp)
c00028b8:	0f b7 45 d6          	movzwl -0x2a(%ebp),%eax
c00028bc:	66 d1 e8             	shr    %ax
c00028bf:	66 89 45 d8          	mov    %ax,-0x28(%ebp)
c00028c3:	0f b7 45 d6          	movzwl -0x2a(%ebp),%eax
c00028c7:	66 2b 45 d8          	sub    -0x28(%ebp),%ax
c00028cb:	66 89 45 da          	mov    %ax,-0x26(%ebp)
c00028cf:	0f b7 45 d8          	movzwl -0x28(%ebp),%eax
c00028d3:	66 c1 e8 03          	shr    $0x3,%ax
c00028d7:	0f b7 c0             	movzwl %ax,%eax
c00028da:	89 45 e8             	mov    %eax,-0x18(%ebp)
c00028dd:	0f b7 45 da          	movzwl -0x26(%ebp),%eax
c00028e1:	66 c1 e8 03          	shr    $0x3,%ax
c00028e5:	0f b7 c0             	movzwl %ax,%eax
c00028e8:	89 45 ec             	mov    %eax,-0x14(%ebp)
c00028eb:	8b 45 e0             	mov    -0x20(%ebp),%eax
c00028ee:	89 45 f0             	mov    %eax,-0x10(%ebp)
c00028f1:	0f b7 45 d8          	movzwl -0x28(%ebp),%eax
c00028f5:	c1 e0 0c             	shl    $0xc,%eax
c00028f8:	89 c2                	mov    %eax,%edx
c00028fa:	8b 45 f0             	mov    -0x10(%ebp),%eax
c00028fd:	01 d0                	add    %edx,%eax
c00028ff:	89 45 f4             	mov    %eax,-0xc(%ebp)
c0002902:	8b 45 f0             	mov    -0x10(%ebp),%eax
c0002905:	a3 cc 55 00 c0       	mov    %eax,0xc00055cc
c000290a:	8b 45 f4             	mov    -0xc(%ebp),%eax
c000290d:	a3 b0 55 00 c0       	mov    %eax,0xc00055b0
c0002912:	0f b7 45 d8          	movzwl -0x28(%ebp),%eax
c0002916:	c1 e0 0c             	shl    $0xc,%eax
c0002919:	a3 d0 55 00 c0       	mov    %eax,0xc00055d0
c000291e:	0f b7 45 da          	movzwl -0x26(%ebp),%eax
c0002922:	c1 e0 0c             	shl    $0xc,%eax
c0002925:	a3 b4 55 00 c0       	mov    %eax,0xc00055b4
c000292a:	8b 45 e8             	mov    -0x18(%ebp),%eax
c000292d:	a3 c4 55 00 c0       	mov    %eax,0xc00055c4
c0002932:	8b 45 ec             	mov    -0x14(%ebp),%eax
c0002935:	a3 a8 55 00 c0       	mov    %eax,0xc00055a8
c000293a:	c7 05 c8 55 00 c0 00 	movl   $0xc0009a00,0xc00055c8
c0002941:	9a 00 c0 
c0002944:	8b 45 e8             	mov    -0x18(%ebp),%eax
c0002947:	2d 00 66 ff 3f       	sub    $0x3fff6600,%eax
c000294c:	a3 ac 55 00 c0       	mov    %eax,0xc00055ac
c0002951:	83 ec 0c             	sub    $0xc,%esp
c0002954:	68 98 38 00 c0       	push   $0xc0003898
c0002959:	e8 2f 09 00 00       	call   c000328d <put_str>
c000295e:	83 c4 10             	add    $0x10,%esp
c0002961:	a1 c8 55 00 c0       	mov    0xc00055c8,%eax
c0002966:	83 ec 0c             	sub    $0xc,%esp
c0002969:	50                   	push   %eax
c000296a:	e8 3c 09 00 00       	call   c00032ab <put_int>
c000296f:	83 c4 10             	add    $0x10,%esp
c0002972:	83 ec 0c             	sub    $0xc,%esp
c0002975:	68 b3 38 00 c0       	push   $0xc00038b3
c000297a:	e8 0e 09 00 00       	call   c000328d <put_str>
c000297f:	83 c4 10             	add    $0x10,%esp
c0002982:	a1 cc 55 00 c0       	mov    0xc00055cc,%eax
c0002987:	83 ec 0c             	sub    $0xc,%esp
c000298a:	50                   	push   %eax
c000298b:	e8 1b 09 00 00       	call   c00032ab <put_int>
c0002990:	83 c4 10             	add    $0x10,%esp
c0002993:	83 ec 0c             	sub    $0xc,%esp
c0002996:	68 81 38 00 c0       	push   $0xc0003881
c000299b:	e8 ed 08 00 00       	call   c000328d <put_str>
c00029a0:	83 c4 10             	add    $0x10,%esp
c00029a3:	83 ec 0c             	sub    $0xc,%esp
c00029a6:	68 d0 38 00 c0       	push   $0xc00038d0
c00029ab:	e8 dd 08 00 00       	call   c000328d <put_str>
c00029b0:	83 c4 10             	add    $0x10,%esp
c00029b3:	a1 ac 55 00 c0       	mov    0xc00055ac,%eax
c00029b8:	83 ec 0c             	sub    $0xc,%esp
c00029bb:	50                   	push   %eax
c00029bc:	e8 ea 08 00 00       	call   c00032ab <put_int>
c00029c1:	83 c4 10             	add    $0x10,%esp
c00029c4:	83 ec 0c             	sub    $0xc,%esp
c00029c7:	68 e8 38 00 c0       	push   $0xc00038e8
c00029cc:	e8 bc 08 00 00       	call   c000328d <put_str>
c00029d1:	83 c4 10             	add    $0x10,%esp
c00029d4:	a1 b0 55 00 c0       	mov    0xc00055b0,%eax
c00029d9:	83 ec 0c             	sub    $0xc,%esp
c00029dc:	50                   	push   %eax
c00029dd:	e8 c9 08 00 00       	call   c00032ab <put_int>
c00029e2:	83 c4 10             	add    $0x10,%esp
c00029e5:	83 ec 0c             	sub    $0xc,%esp
c00029e8:	68 81 38 00 c0       	push   $0xc0003881
c00029ed:	e8 9b 08 00 00       	call   c000328d <put_str>
c00029f2:	83 c4 10             	add    $0x10,%esp
c00029f5:	83 ec 0c             	sub    $0xc,%esp
c00029f8:	68 c4 55 00 c0       	push   $0xc00055c4
c00029fd:	e8 c9 00 00 00       	call   c0002acb <bitmap_init>
c0002a02:	83 c4 10             	add    $0x10,%esp
c0002a05:	83 ec 0c             	sub    $0xc,%esp
c0002a08:	68 03 39 00 c0       	push   $0xc0003903
c0002a0d:	e8 7b 08 00 00       	call   c000328d <put_str>
c0002a12:	83 c4 10             	add    $0x10,%esp
c0002a15:	a1 c4 55 00 c0       	mov    0xc00055c4,%eax
c0002a1a:	83 ec 0c             	sub    $0xc,%esp
c0002a1d:	50                   	push   %eax
c0002a1e:	e8 88 08 00 00       	call   c00032ab <put_int>
c0002a23:	83 c4 10             	add    $0x10,%esp
c0002a26:	83 ec 0c             	sub    $0xc,%esp
c0002a29:	68 81 38 00 c0       	push   $0xc0003881
c0002a2e:	e8 5a 08 00 00       	call   c000328d <put_str>
c0002a33:	83 c4 10             	add    $0x10,%esp
c0002a36:	83 ec 0c             	sub    $0xc,%esp
c0002a39:	68 a8 55 00 c0       	push   $0xc00055a8
c0002a3e:	e8 88 00 00 00       	call   c0002acb <bitmap_init>
c0002a43:	83 c4 10             	add    $0x10,%esp
c0002a46:	8b 45 e8             	mov    -0x18(%ebp),%eax
c0002a49:	a3 b8 55 00 c0       	mov    %eax,0xc00055b8
c0002a4e:	8b 55 e8             	mov    -0x18(%ebp),%edx
c0002a51:	8b 45 ec             	mov    -0x14(%ebp),%eax
c0002a54:	01 d0                	add    %edx,%eax
c0002a56:	2d 00 66 ff 3f       	sub    $0x3fff6600,%eax
c0002a5b:	a3 bc 55 00 c0       	mov    %eax,0xc00055bc
c0002a60:	c7 05 c0 55 00 c0 00 	movl   $0xc0100000,0xc00055c0
c0002a67:	00 10 c0 
c0002a6a:	83 ec 0c             	sub    $0xc,%esp
c0002a6d:	68 b8 55 00 c0       	push   $0xc00055b8
c0002a72:	e8 54 00 00 00       	call   c0002acb <bitmap_init>
c0002a77:	83 c4 10             	add    $0x10,%esp
c0002a7a:	83 ec 0c             	sub    $0xc,%esp
c0002a7d:	68 1d 39 00 c0       	push   $0xc000391d
c0002a82:	e8 06 08 00 00       	call   c000328d <put_str>
c0002a87:	83 c4 10             	add    $0x10,%esp
c0002a8a:	90                   	nop
c0002a8b:	c9                   	leave  
c0002a8c:	c3                   	ret    

c0002a8d <mem_init>:
c0002a8d:	55                   	push   %ebp
c0002a8e:	89 e5                	mov    %esp,%ebp
c0002a90:	83 ec 18             	sub    $0x18,%esp
c0002a93:	83 ec 0c             	sub    $0xc,%esp
c0002a96:	68 31 39 00 c0       	push   $0xc0003931
c0002a9b:	e8 ed 07 00 00       	call   c000328d <put_str>
c0002aa0:	83 c4 10             	add    $0x10,%esp
c0002aa3:	c7 45 f4 00 00 00 02 	movl   $0x2000000,-0xc(%ebp)
c0002aaa:	83 ec 0c             	sub    $0xc,%esp
c0002aad:	ff 75 f4             	pushl  -0xc(%ebp)
c0002ab0:	e8 c8 fd ff ff       	call   c000287d <mem_pool_init>
c0002ab5:	83 c4 10             	add    $0x10,%esp
c0002ab8:	83 ec 0c             	sub    $0xc,%esp
c0002abb:	68 41 39 00 c0       	push   $0xc0003941
c0002ac0:	e8 c8 07 00 00       	call   c000328d <put_str>
c0002ac5:	83 c4 10             	add    $0x10,%esp
c0002ac8:	90                   	nop
c0002ac9:	c9                   	leave  
c0002aca:	c3                   	ret    

c0002acb <bitmap_init>:
c0002acb:	55                   	push   %ebp
c0002acc:	89 e5                	mov    %esp,%ebp
c0002ace:	83 ec 08             	sub    $0x8,%esp
c0002ad1:	8b 45 08             	mov    0x8(%ebp),%eax
c0002ad4:	8b 10                	mov    (%eax),%edx
c0002ad6:	8b 45 08             	mov    0x8(%ebp),%eax
c0002ad9:	8b 40 04             	mov    0x4(%eax),%eax
c0002adc:	83 ec 04             	sub    $0x4,%esp
c0002adf:	52                   	push   %edx
c0002ae0:	6a 00                	push   $0x0
c0002ae2:	50                   	push   %eax
c0002ae3:	e8 34 02 00 00       	call   c0002d1c <memset>
c0002ae8:	83 c4 10             	add    $0x10,%esp
c0002aeb:	90                   	nop
c0002aec:	c9                   	leave  
c0002aed:	c3                   	ret    

c0002aee <bitmap_scan_test>:
c0002aee:	55                   	push   %ebp
c0002aef:	89 e5                	mov    %esp,%ebp
c0002af1:	53                   	push   %ebx
c0002af2:	83 ec 10             	sub    $0x10,%esp
c0002af5:	8b 45 0c             	mov    0xc(%ebp),%eax
c0002af8:	c1 e8 03             	shr    $0x3,%eax
c0002afb:	89 45 f4             	mov    %eax,-0xc(%ebp)
c0002afe:	8b 45 0c             	mov    0xc(%ebp),%eax
c0002b01:	83 e0 07             	and    $0x7,%eax
c0002b04:	89 45 f8             	mov    %eax,-0x8(%ebp)
c0002b07:	8b 45 08             	mov    0x8(%ebp),%eax
c0002b0a:	8b 50 04             	mov    0x4(%eax),%edx
c0002b0d:	8b 45 f4             	mov    -0xc(%ebp),%eax
c0002b10:	01 d0                	add    %edx,%eax
c0002b12:	0f b6 00             	movzbl (%eax),%eax
c0002b15:	0f b6 d0             	movzbl %al,%edx
c0002b18:	8b 45 f8             	mov    -0x8(%ebp),%eax
c0002b1b:	bb 01 00 00 00       	mov    $0x1,%ebx
c0002b20:	89 c1                	mov    %eax,%ecx
c0002b22:	d3 e3                	shl    %cl,%ebx
c0002b24:	89 d8                	mov    %ebx,%eax
c0002b26:	21 d0                	and    %edx,%eax
c0002b28:	85 c0                	test   %eax,%eax
c0002b2a:	0f 95 c0             	setne  %al
c0002b2d:	83 c4 10             	add    $0x10,%esp
c0002b30:	5b                   	pop    %ebx
c0002b31:	5d                   	pop    %ebp
c0002b32:	c3                   	ret    

c0002b33 <bitmap_scan>:
c0002b33:	55                   	push   %ebp
c0002b34:	89 e5                	mov    %esp,%ebp
c0002b36:	83 ec 28             	sub    $0x28,%esp
c0002b39:	c7 45 e0 00 00 00 00 	movl   $0x0,-0x20(%ebp)
c0002b40:	eb 04                	jmp    c0002b46 <bitmap_scan+0x13>
c0002b42:	83 45 e0 01          	addl   $0x1,-0x20(%ebp)
c0002b46:	8b 45 08             	mov    0x8(%ebp),%eax
c0002b49:	8b 50 04             	mov    0x4(%eax),%edx
c0002b4c:	8b 45 e0             	mov    -0x20(%ebp),%eax
c0002b4f:	01 d0                	add    %edx,%eax
c0002b51:	0f b6 00             	movzbl (%eax),%eax
c0002b54:	3c ff                	cmp    $0xff,%al
c0002b56:	75 0a                	jne    c0002b62 <bitmap_scan+0x2f>
c0002b58:	8b 45 08             	mov    0x8(%ebp),%eax
c0002b5b:	8b 00                	mov    (%eax),%eax
c0002b5d:	3b 45 e0             	cmp    -0x20(%ebp),%eax
c0002b60:	77 e0                	ja     c0002b42 <bitmap_scan+0xf>
c0002b62:	8b 45 08             	mov    0x8(%ebp),%eax
c0002b65:	8b 00                	mov    (%eax),%eax
c0002b67:	3b 45 e0             	cmp    -0x20(%ebp),%eax
c0002b6a:	77 19                	ja     c0002b85 <bitmap_scan+0x52>
c0002b6c:	68 6c 39 00 c0       	push   $0xc000396c
c0002b71:	68 b0 39 00 c0       	push   $0xc00039b0
c0002b76:	6a 19                	push   $0x19
c0002b78:	68 8e 39 00 c0       	push   $0xc000398e
c0002b7d:	e8 65 05 00 00       	call   c00030e7 <panic_spin>
c0002b82:	83 c4 10             	add    $0x10,%esp
c0002b85:	8b 45 08             	mov    0x8(%ebp),%eax
c0002b88:	8b 00                	mov    (%eax),%eax
c0002b8a:	3b 45 e0             	cmp    -0x20(%ebp),%eax
c0002b8d:	75 0a                	jne    c0002b99 <bitmap_scan+0x66>
c0002b8f:	b8 ff ff ff ff       	mov    $0xffffffff,%eax
c0002b94:	e9 d0 00 00 00       	jmp    c0002c69 <bitmap_scan+0x136>
c0002b99:	c7 45 e4 00 00 00 00 	movl   $0x0,-0x1c(%ebp)
c0002ba0:	eb 04                	jmp    c0002ba6 <bitmap_scan+0x73>
c0002ba2:	83 45 e4 01          	addl   $0x1,-0x1c(%ebp)
c0002ba6:	8b 45 e4             	mov    -0x1c(%ebp),%eax
c0002ba9:	ba 01 00 00 00       	mov    $0x1,%edx
c0002bae:	89 c1                	mov    %eax,%ecx
c0002bb0:	d3 e2                	shl    %cl,%edx
c0002bb2:	89 d0                	mov    %edx,%eax
c0002bb4:	0f b6 d0             	movzbl %al,%edx
c0002bb7:	8b 45 08             	mov    0x8(%ebp),%eax
c0002bba:	8b 48 04             	mov    0x4(%eax),%ecx
c0002bbd:	8b 45 e0             	mov    -0x20(%ebp),%eax
c0002bc0:	01 c8                	add    %ecx,%eax
c0002bc2:	0f b6 00             	movzbl (%eax),%eax
c0002bc5:	0f b6 c0             	movzbl %al,%eax
c0002bc8:	21 d0                	and    %edx,%eax
c0002bca:	85 c0                	test   %eax,%eax
c0002bcc:	75 d4                	jne    c0002ba2 <bitmap_scan+0x6f>
c0002bce:	8b 45 e0             	mov    -0x20(%ebp),%eax
c0002bd1:	8d 14 c5 00 00 00 00 	lea    0x0(,%eax,8),%edx
c0002bd8:	8b 45 e4             	mov    -0x1c(%ebp),%eax
c0002bdb:	01 d0                	add    %edx,%eax
c0002bdd:	89 45 e8             	mov    %eax,-0x18(%ebp)
c0002be0:	83 7d 0c 01          	cmpl   $0x1,0xc(%ebp)
c0002be4:	75 05                	jne    c0002beb <bitmap_scan+0xb8>
c0002be6:	8b 45 e8             	mov    -0x18(%ebp),%eax
c0002be9:	eb 7e                	jmp    c0002c69 <bitmap_scan+0x136>
c0002beb:	8b 45 08             	mov    0x8(%ebp),%eax
c0002bee:	8b 00                	mov    (%eax),%eax
c0002bf0:	8d 14 c5 00 00 00 00 	lea    0x0(,%eax,8),%edx
c0002bf7:	8b 45 e8             	mov    -0x18(%ebp),%eax
c0002bfa:	29 c2                	sub    %eax,%edx
c0002bfc:	89 d0                	mov    %edx,%eax
c0002bfe:	89 45 ec             	mov    %eax,-0x14(%ebp)
c0002c01:	8b 45 e8             	mov    -0x18(%ebp),%eax
c0002c04:	83 c0 01             	add    $0x1,%eax
c0002c07:	89 45 f0             	mov    %eax,-0x10(%ebp)
c0002c0a:	c7 45 f4 01 00 00 00 	movl   $0x1,-0xc(%ebp)
c0002c11:	c7 45 e8 ff ff ff ff 	movl   $0xffffffff,-0x18(%ebp)
c0002c18:	eb 3f                	jmp    c0002c59 <bitmap_scan+0x126>
c0002c1a:	83 ec 08             	sub    $0x8,%esp
c0002c1d:	ff 75 f0             	pushl  -0x10(%ebp)
c0002c20:	ff 75 08             	pushl  0x8(%ebp)
c0002c23:	e8 c6 fe ff ff       	call   c0002aee <bitmap_scan_test>
c0002c28:	83 c4 10             	add    $0x10,%esp
c0002c2b:	83 f0 01             	xor    $0x1,%eax
c0002c2e:	84 c0                	test   %al,%al
c0002c30:	74 06                	je     c0002c38 <bitmap_scan+0x105>
c0002c32:	83 45 f4 01          	addl   $0x1,-0xc(%ebp)
c0002c36:	eb 07                	jmp    c0002c3f <bitmap_scan+0x10c>
c0002c38:	c7 45 f4 00 00 00 00 	movl   $0x0,-0xc(%ebp)
c0002c3f:	8b 45 f4             	mov    -0xc(%ebp),%eax
c0002c42:	3b 45 0c             	cmp    0xc(%ebp),%eax
c0002c45:	75 0e                	jne    c0002c55 <bitmap_scan+0x122>
c0002c47:	8b 45 f0             	mov    -0x10(%ebp),%eax
c0002c4a:	2b 45 0c             	sub    0xc(%ebp),%eax
c0002c4d:	83 c0 01             	add    $0x1,%eax
c0002c50:	89 45 e8             	mov    %eax,-0x18(%ebp)
c0002c53:	eb 11                	jmp    c0002c66 <bitmap_scan+0x133>
c0002c55:	83 45 f0 01          	addl   $0x1,-0x10(%ebp)
c0002c59:	8b 45 ec             	mov    -0x14(%ebp),%eax
c0002c5c:	8d 50 ff             	lea    -0x1(%eax),%edx
c0002c5f:	89 55 ec             	mov    %edx,-0x14(%ebp)
c0002c62:	85 c0                	test   %eax,%eax
c0002c64:	75 b4                	jne    c0002c1a <bitmap_scan+0xe7>
c0002c66:	8b 45 e8             	mov    -0x18(%ebp),%eax
c0002c69:	c9                   	leave  
c0002c6a:	c3                   	ret    

c0002c6b <bitmap_set>:
c0002c6b:	55                   	push   %ebp
c0002c6c:	89 e5                	mov    %esp,%ebp
c0002c6e:	56                   	push   %esi
c0002c6f:	53                   	push   %ebx
c0002c70:	83 ec 20             	sub    $0x20,%esp
c0002c73:	8b 45 10             	mov    0x10(%ebp),%eax
c0002c76:	88 45 e4             	mov    %al,-0x1c(%ebp)
c0002c79:	80 7d e4 00          	cmpb   $0x0,-0x1c(%ebp)
c0002c7d:	74 1f                	je     c0002c9e <bitmap_set+0x33>
c0002c7f:	80 7d e4 01          	cmpb   $0x1,-0x1c(%ebp)
c0002c83:	74 19                	je     c0002c9e <bitmap_set+0x33>
c0002c85:	68 97 39 00 c0       	push   $0xc0003997
c0002c8a:	68 bc 39 00 c0       	push   $0xc00039bc
c0002c8f:	6a 42                	push   $0x42
c0002c91:	68 8e 39 00 c0       	push   $0xc000398e
c0002c96:	e8 4c 04 00 00       	call   c00030e7 <panic_spin>
c0002c9b:	83 c4 10             	add    $0x10,%esp
c0002c9e:	8b 45 0c             	mov    0xc(%ebp),%eax
c0002ca1:	c1 e8 03             	shr    $0x3,%eax
c0002ca4:	89 45 f0             	mov    %eax,-0x10(%ebp)
c0002ca7:	8b 45 0c             	mov    0xc(%ebp),%eax
c0002caa:	83 e0 07             	and    $0x7,%eax
c0002cad:	89 45 f4             	mov    %eax,-0xc(%ebp)
c0002cb0:	80 7d e4 00          	cmpb   $0x0,-0x1c(%ebp)
c0002cb4:	74 2f                	je     c0002ce5 <bitmap_set+0x7a>
c0002cb6:	8b 45 08             	mov    0x8(%ebp),%eax
c0002cb9:	8b 50 04             	mov    0x4(%eax),%edx
c0002cbc:	8b 45 f0             	mov    -0x10(%ebp),%eax
c0002cbf:	01 c2                	add    %eax,%edx
c0002cc1:	8b 45 08             	mov    0x8(%ebp),%eax
c0002cc4:	8b 48 04             	mov    0x4(%eax),%ecx
c0002cc7:	8b 45 f0             	mov    -0x10(%ebp),%eax
c0002cca:	01 c8                	add    %ecx,%eax
c0002ccc:	0f b6 00             	movzbl (%eax),%eax
c0002ccf:	89 c6                	mov    %eax,%esi
c0002cd1:	8b 45 f4             	mov    -0xc(%ebp),%eax
c0002cd4:	bb 01 00 00 00       	mov    $0x1,%ebx
c0002cd9:	89 c1                	mov    %eax,%ecx
c0002cdb:	d3 e3                	shl    %cl,%ebx
c0002cdd:	89 d8                	mov    %ebx,%eax
c0002cdf:	09 f0                	or     %esi,%eax
c0002ce1:	88 02                	mov    %al,(%edx)
c0002ce3:	eb 2f                	jmp    c0002d14 <bitmap_set+0xa9>
c0002ce5:	8b 45 08             	mov    0x8(%ebp),%eax
c0002ce8:	8b 50 04             	mov    0x4(%eax),%edx
c0002ceb:	8b 45 f0             	mov    -0x10(%ebp),%eax
c0002cee:	01 c2                	add    %eax,%edx
c0002cf0:	8b 45 08             	mov    0x8(%ebp),%eax
c0002cf3:	8b 48 04             	mov    0x4(%eax),%ecx
c0002cf6:	8b 45 f0             	mov    -0x10(%ebp),%eax
c0002cf9:	01 c8                	add    %ecx,%eax
c0002cfb:	0f b6 00             	movzbl (%eax),%eax
c0002cfe:	89 c3                	mov    %eax,%ebx
c0002d00:	8b 45 f4             	mov    -0xc(%ebp),%eax
c0002d03:	be 01 00 00 00       	mov    $0x1,%esi
c0002d08:	89 c1                	mov    %eax,%ecx
c0002d0a:	d3 e6                	shl    %cl,%esi
c0002d0c:	89 f0                	mov    %esi,%eax
c0002d0e:	f7 d0                	not    %eax
c0002d10:	21 d8                	and    %ebx,%eax
c0002d12:	88 02                	mov    %al,(%edx)
c0002d14:	90                   	nop
c0002d15:	8d 65 f8             	lea    -0x8(%ebp),%esp
c0002d18:	5b                   	pop    %ebx
c0002d19:	5e                   	pop    %esi
c0002d1a:	5d                   	pop    %ebp
c0002d1b:	c3                   	ret    

c0002d1c <memset>:
c0002d1c:	55                   	push   %ebp
c0002d1d:	89 e5                	mov    %esp,%ebp
c0002d1f:	83 ec 28             	sub    $0x28,%esp
c0002d22:	8b 45 0c             	mov    0xc(%ebp),%eax
c0002d25:	88 45 e4             	mov    %al,-0x1c(%ebp)
c0002d28:	83 7d 08 00          	cmpl   $0x0,0x8(%ebp)
c0002d2c:	75 19                	jne    c0002d47 <memset+0x2b>
c0002d2e:	68 c8 39 00 c0       	push   $0xc00039c8
c0002d33:	68 34 3a 00 c0       	push   $0xc0003a34
c0002d38:	6a 06                	push   $0x6
c0002d3a:	68 d4 39 00 c0       	push   $0xc00039d4
c0002d3f:	e8 a3 03 00 00       	call   c00030e7 <panic_spin>
c0002d44:	83 c4 10             	add    $0x10,%esp
c0002d47:	8b 45 08             	mov    0x8(%ebp),%eax
c0002d4a:	89 45 f4             	mov    %eax,-0xc(%ebp)
c0002d4d:	eb 0f                	jmp    c0002d5e <memset+0x42>
c0002d4f:	8b 45 f4             	mov    -0xc(%ebp),%eax
c0002d52:	8d 50 01             	lea    0x1(%eax),%edx
c0002d55:	89 55 f4             	mov    %edx,-0xc(%ebp)
c0002d58:	0f b6 55 e4          	movzbl -0x1c(%ebp),%edx
c0002d5c:	88 10                	mov    %dl,(%eax)
c0002d5e:	8b 45 10             	mov    0x10(%ebp),%eax
c0002d61:	8d 50 ff             	lea    -0x1(%eax),%edx
c0002d64:	89 55 10             	mov    %edx,0x10(%ebp)
c0002d67:	85 c0                	test   %eax,%eax
c0002d69:	75 e4                	jne    c0002d4f <memset+0x33>
c0002d6b:	90                   	nop
c0002d6c:	c9                   	leave  
c0002d6d:	c3                   	ret    

c0002d6e <memcpy>:
c0002d6e:	55                   	push   %ebp
c0002d6f:	89 e5                	mov    %esp,%ebp
c0002d71:	83 ec 18             	sub    $0x18,%esp
c0002d74:	83 7d 08 00          	cmpl   $0x0,0x8(%ebp)
c0002d78:	74 06                	je     c0002d80 <memcpy+0x12>
c0002d7a:	83 7d 0c 00          	cmpl   $0x0,0xc(%ebp)
c0002d7e:	75 19                	jne    c0002d99 <memcpy+0x2b>
c0002d80:	68 dd 39 00 c0       	push   $0xc00039dd
c0002d85:	68 3c 3a 00 c0       	push   $0xc0003a3c
c0002d8a:	6a 10                	push   $0x10
c0002d8c:	68 d4 39 00 c0       	push   $0xc00039d4
c0002d91:	e8 51 03 00 00       	call   c00030e7 <panic_spin>
c0002d96:	83 c4 10             	add    $0x10,%esp
c0002d99:	8b 45 08             	mov    0x8(%ebp),%eax
c0002d9c:	89 45 f0             	mov    %eax,-0x10(%ebp)
c0002d9f:	8b 45 0c             	mov    0xc(%ebp),%eax
c0002da2:	89 45 f4             	mov    %eax,-0xc(%ebp)
c0002da5:	eb 17                	jmp    c0002dbe <memcpy+0x50>
c0002da7:	8b 45 f0             	mov    -0x10(%ebp),%eax
c0002daa:	8d 50 01             	lea    0x1(%eax),%edx
c0002dad:	89 55 f0             	mov    %edx,-0x10(%ebp)
c0002db0:	8b 55 f4             	mov    -0xc(%ebp),%edx
c0002db3:	8d 4a 01             	lea    0x1(%edx),%ecx
c0002db6:	89 4d f4             	mov    %ecx,-0xc(%ebp)
c0002db9:	0f b6 12             	movzbl (%edx),%edx
c0002dbc:	88 10                	mov    %dl,(%eax)
c0002dbe:	8b 45 10             	mov    0x10(%ebp),%eax
c0002dc1:	8d 50 ff             	lea    -0x1(%eax),%edx
c0002dc4:	89 55 10             	mov    %edx,0x10(%ebp)
c0002dc7:	85 c0                	test   %eax,%eax
c0002dc9:	75 dc                	jne    c0002da7 <memcpy+0x39>
c0002dcb:	90                   	nop
c0002dcc:	c9                   	leave  
c0002dcd:	c3                   	ret    

c0002dce <memcmp>:
c0002dce:	55                   	push   %ebp
c0002dcf:	89 e5                	mov    %esp,%ebp
c0002dd1:	83 ec 18             	sub    $0x18,%esp
c0002dd4:	8b 45 08             	mov    0x8(%ebp),%eax
c0002dd7:	89 45 f0             	mov    %eax,-0x10(%ebp)
c0002dda:	8b 45 0c             	mov    0xc(%ebp),%eax
c0002ddd:	89 45 f4             	mov    %eax,-0xc(%ebp)
c0002de0:	83 7d f0 00          	cmpl   $0x0,-0x10(%ebp)
c0002de4:	75 57                	jne    c0002e3d <memcmp+0x6f>
c0002de6:	83 7d f4 00          	cmpl   $0x0,-0xc(%ebp)
c0002dea:	75 51                	jne    c0002e3d <memcmp+0x6f>
c0002dec:	68 fa 39 00 c0       	push   $0xc00039fa
c0002df1:	68 44 3a 00 c0       	push   $0xc0003a44
c0002df6:	6a 1d                	push   $0x1d
c0002df8:	68 d4 39 00 c0       	push   $0xc00039d4
c0002dfd:	e8 e5 02 00 00       	call   c00030e7 <panic_spin>
c0002e02:	83 c4 10             	add    $0x10,%esp
c0002e05:	eb 36                	jmp    c0002e3d <memcmp+0x6f>
c0002e07:	8b 45 f0             	mov    -0x10(%ebp),%eax
c0002e0a:	0f b6 10             	movzbl (%eax),%edx
c0002e0d:	8b 45 f4             	mov    -0xc(%ebp),%eax
c0002e10:	0f b6 00             	movzbl (%eax),%eax
c0002e13:	38 c2                	cmp    %al,%dl
c0002e15:	74 1e                	je     c0002e35 <memcmp+0x67>
c0002e17:	8b 45 f0             	mov    -0x10(%ebp),%eax
c0002e1a:	0f b6 10             	movzbl (%eax),%edx
c0002e1d:	8b 45 f4             	mov    -0xc(%ebp),%eax
c0002e20:	0f b6 00             	movzbl (%eax),%eax
c0002e23:	38 c2                	cmp    %al,%dl
c0002e25:	7e 07                	jle    c0002e2e <memcmp+0x60>
c0002e27:	b8 01 00 00 00       	mov    $0x1,%eax
c0002e2c:	eb 1c                	jmp    c0002e4a <memcmp+0x7c>
c0002e2e:	b8 ff ff ff ff       	mov    $0xffffffff,%eax
c0002e33:	eb 15                	jmp    c0002e4a <memcmp+0x7c>
c0002e35:	83 45 f0 01          	addl   $0x1,-0x10(%ebp)
c0002e39:	83 45 f4 01          	addl   $0x1,-0xc(%ebp)
c0002e3d:	8b 45 10             	mov    0x10(%ebp),%eax
c0002e40:	8d 50 ff             	lea    -0x1(%eax),%edx
c0002e43:	89 55 10             	mov    %edx,0x10(%ebp)
c0002e46:	85 c0                	test   %eax,%eax
c0002e48:	75 bd                	jne    c0002e07 <memcmp+0x39>
c0002e4a:	c9                   	leave  
c0002e4b:	c3                   	ret    

c0002e4c <strcpy>:
c0002e4c:	55                   	push   %ebp
c0002e4d:	89 e5                	mov    %esp,%ebp
c0002e4f:	83 ec 18             	sub    $0x18,%esp
c0002e52:	83 7d 08 00          	cmpl   $0x0,0x8(%ebp)
c0002e56:	74 06                	je     c0002e5e <strcpy+0x12>
c0002e58:	83 7d 0c 00          	cmpl   $0x0,0xc(%ebp)
c0002e5c:	75 19                	jne    c0002e77 <strcpy+0x2b>
c0002e5e:	68 dd 39 00 c0       	push   $0xc00039dd
c0002e63:	68 4c 3a 00 c0       	push   $0xc0003a4c
c0002e68:	6a 2f                	push   $0x2f
c0002e6a:	68 d4 39 00 c0       	push   $0xc00039d4
c0002e6f:	e8 73 02 00 00       	call   c00030e7 <panic_spin>
c0002e74:	83 c4 10             	add    $0x10,%esp
c0002e77:	8b 45 08             	mov    0x8(%ebp),%eax
c0002e7a:	89 45 f4             	mov    %eax,-0xc(%ebp)
c0002e7d:	90                   	nop
c0002e7e:	8b 45 08             	mov    0x8(%ebp),%eax
c0002e81:	8d 50 01             	lea    0x1(%eax),%edx
c0002e84:	89 55 08             	mov    %edx,0x8(%ebp)
c0002e87:	8b 55 0c             	mov    0xc(%ebp),%edx
c0002e8a:	8d 4a 01             	lea    0x1(%edx),%ecx
c0002e8d:	89 4d 0c             	mov    %ecx,0xc(%ebp)
c0002e90:	0f b6 12             	movzbl (%edx),%edx
c0002e93:	88 10                	mov    %dl,(%eax)
c0002e95:	0f b6 00             	movzbl (%eax),%eax
c0002e98:	84 c0                	test   %al,%al
c0002e9a:	75 e2                	jne    c0002e7e <strcpy+0x32>
c0002e9c:	8b 45 f4             	mov    -0xc(%ebp),%eax
c0002e9f:	c9                   	leave  
c0002ea0:	c3                   	ret    

c0002ea1 <strlen>:
c0002ea1:	55                   	push   %ebp
c0002ea2:	89 e5                	mov    %esp,%ebp
c0002ea4:	83 ec 18             	sub    $0x18,%esp
c0002ea7:	83 7d 08 00          	cmpl   $0x0,0x8(%ebp)
c0002eab:	75 19                	jne    c0002ec6 <strlen+0x25>
c0002ead:	68 10 3a 00 c0       	push   $0xc0003a10
c0002eb2:	68 54 3a 00 c0       	push   $0xc0003a54
c0002eb7:	6a 37                	push   $0x37
c0002eb9:	68 d4 39 00 c0       	push   $0xc00039d4
c0002ebe:	e8 24 02 00 00       	call   c00030e7 <panic_spin>
c0002ec3:	83 c4 10             	add    $0x10,%esp
c0002ec6:	8b 45 08             	mov    0x8(%ebp),%eax
c0002ec9:	89 45 f4             	mov    %eax,-0xc(%ebp)
c0002ecc:	90                   	nop
c0002ecd:	8b 45 f4             	mov    -0xc(%ebp),%eax
c0002ed0:	8d 50 01             	lea    0x1(%eax),%edx
c0002ed3:	89 55 f4             	mov    %edx,-0xc(%ebp)
c0002ed6:	0f b6 00             	movzbl (%eax),%eax
c0002ed9:	84 c0                	test   %al,%al
c0002edb:	75 f0                	jne    c0002ecd <strlen+0x2c>
c0002edd:	8b 55 f4             	mov    -0xc(%ebp),%edx
c0002ee0:	8b 45 08             	mov    0x8(%ebp),%eax
c0002ee3:	29 c2                	sub    %eax,%edx
c0002ee5:	89 d0                	mov    %edx,%eax
c0002ee7:	83 e8 01             	sub    $0x1,%eax
c0002eea:	c9                   	leave  
c0002eeb:	c3                   	ret    

c0002eec <strcmp>:
c0002eec:	55                   	push   %ebp
c0002eed:	89 e5                	mov    %esp,%ebp
c0002eef:	83 ec 08             	sub    $0x8,%esp
c0002ef2:	83 7d 08 00          	cmpl   $0x0,0x8(%ebp)
c0002ef6:	74 06                	je     c0002efe <strcmp+0x12>
c0002ef8:	83 7d 0c 00          	cmpl   $0x0,0xc(%ebp)
c0002efc:	75 19                	jne    c0002f17 <strcmp+0x2b>
c0002efe:	68 1c 3a 00 c0       	push   $0xc0003a1c
c0002f03:	68 5c 3a 00 c0       	push   $0xc0003a5c
c0002f08:	6a 40                	push   $0x40
c0002f0a:	68 d4 39 00 c0       	push   $0xc00039d4
c0002f0f:	e8 d3 01 00 00       	call   c00030e7 <panic_spin>
c0002f14:	83 c4 10             	add    $0x10,%esp
c0002f17:	eb 08                	jmp    c0002f21 <strcmp+0x35>
c0002f19:	83 45 08 01          	addl   $0x1,0x8(%ebp)
c0002f1d:	83 45 0c 01          	addl   $0x1,0xc(%ebp)
c0002f21:	8b 45 08             	mov    0x8(%ebp),%eax
c0002f24:	0f b6 00             	movzbl (%eax),%eax
c0002f27:	84 c0                	test   %al,%al
c0002f29:	74 10                	je     c0002f3b <strcmp+0x4f>
c0002f2b:	8b 45 08             	mov    0x8(%ebp),%eax
c0002f2e:	0f b6 10             	movzbl (%eax),%edx
c0002f31:	8b 45 0c             	mov    0xc(%ebp),%eax
c0002f34:	0f b6 00             	movzbl (%eax),%eax
c0002f37:	38 c2                	cmp    %al,%dl
c0002f39:	74 de                	je     c0002f19 <strcmp+0x2d>
c0002f3b:	8b 45 08             	mov    0x8(%ebp),%eax
c0002f3e:	0f b6 10             	movzbl (%eax),%edx
c0002f41:	8b 45 0c             	mov    0xc(%ebp),%eax
c0002f44:	0f b6 00             	movzbl (%eax),%eax
c0002f47:	38 c2                	cmp    %al,%dl
c0002f49:	7c 13                	jl     c0002f5e <strcmp+0x72>
c0002f4b:	8b 45 08             	mov    0x8(%ebp),%eax
c0002f4e:	0f b6 10             	movzbl (%eax),%edx
c0002f51:	8b 45 0c             	mov    0xc(%ebp),%eax
c0002f54:	0f b6 00             	movzbl (%eax),%eax
c0002f57:	38 c2                	cmp    %al,%dl
c0002f59:	0f 9f c0             	setg   %al
c0002f5c:	eb 05                	jmp    c0002f63 <strcmp+0x77>
c0002f5e:	b8 ff ff ff ff       	mov    $0xffffffff,%eax
c0002f63:	c9                   	leave  
c0002f64:	c3                   	ret    

c0002f65 <strchr>:
c0002f65:	55                   	push   %ebp
c0002f66:	89 e5                	mov    %esp,%ebp
c0002f68:	83 ec 18             	sub    $0x18,%esp
c0002f6b:	8b 45 0c             	mov    0xc(%ebp),%eax
c0002f6e:	88 45 f4             	mov    %al,-0xc(%ebp)
c0002f71:	83 7d 08 00          	cmpl   $0x0,0x8(%ebp)
c0002f75:	75 35                	jne    c0002fac <strchr+0x47>
c0002f77:	68 10 3a 00 c0       	push   $0xc0003a10
c0002f7c:	68 64 3a 00 c0       	push   $0xc0003a64
c0002f81:	6a 4c                	push   $0x4c
c0002f83:	68 d4 39 00 c0       	push   $0xc00039d4
c0002f88:	e8 5a 01 00 00       	call   c00030e7 <panic_spin>
c0002f8d:	83 c4 10             	add    $0x10,%esp
c0002f90:	eb 1a                	jmp    c0002fac <strchr+0x47>
c0002f92:	8b 45 08             	mov    0x8(%ebp),%eax
c0002f95:	0f b6 00             	movzbl (%eax),%eax
c0002f98:	0f be d0             	movsbl %al,%edx
c0002f9b:	0f b6 45 f4          	movzbl -0xc(%ebp),%eax
c0002f9f:	39 c2                	cmp    %eax,%edx
c0002fa1:	75 05                	jne    c0002fa8 <strchr+0x43>
c0002fa3:	8b 45 08             	mov    0x8(%ebp),%eax
c0002fa6:	eb 13                	jmp    c0002fbb <strchr+0x56>
c0002fa8:	83 45 08 01          	addl   $0x1,0x8(%ebp)
c0002fac:	8b 45 08             	mov    0x8(%ebp),%eax
c0002faf:	0f b6 00             	movzbl (%eax),%eax
c0002fb2:	84 c0                	test   %al,%al
c0002fb4:	75 dc                	jne    c0002f92 <strchr+0x2d>
c0002fb6:	b8 00 00 00 00       	mov    $0x0,%eax
c0002fbb:	c9                   	leave  
c0002fbc:	c3                   	ret    

c0002fbd <strrchr>:
c0002fbd:	55                   	push   %ebp
c0002fbe:	89 e5                	mov    %esp,%ebp
c0002fc0:	83 ec 28             	sub    $0x28,%esp
c0002fc3:	8b 45 0c             	mov    0xc(%ebp),%eax
c0002fc6:	88 45 e4             	mov    %al,-0x1c(%ebp)
c0002fc9:	83 7d 08 00          	cmpl   $0x0,0x8(%ebp)
c0002fcd:	75 19                	jne    c0002fe8 <strrchr+0x2b>
c0002fcf:	68 10 3a 00 c0       	push   $0xc0003a10
c0002fd4:	68 6c 3a 00 c0       	push   $0xc0003a6c
c0002fd9:	6a 5c                	push   $0x5c
c0002fdb:	68 d4 39 00 c0       	push   $0xc00039d4
c0002fe0:	e8 02 01 00 00       	call   c00030e7 <panic_spin>
c0002fe5:	83 c4 10             	add    $0x10,%esp
c0002fe8:	c7 45 f4 00 00 00 00 	movl   $0x0,-0xc(%ebp)
c0002fef:	eb 1b                	jmp    c000300c <strrchr+0x4f>
c0002ff1:	8b 45 08             	mov    0x8(%ebp),%eax
c0002ff4:	0f b6 00             	movzbl (%eax),%eax
c0002ff7:	0f be d0             	movsbl %al,%edx
c0002ffa:	0f b6 45 e4          	movzbl -0x1c(%ebp),%eax
c0002ffe:	39 c2                	cmp    %eax,%edx
c0003000:	75 06                	jne    c0003008 <strrchr+0x4b>
c0003002:	8b 45 08             	mov    0x8(%ebp),%eax
c0003005:	89 45 f4             	mov    %eax,-0xc(%ebp)
c0003008:	83 45 08 01          	addl   $0x1,0x8(%ebp)
c000300c:	8b 45 08             	mov    0x8(%ebp),%eax
c000300f:	0f b6 00             	movzbl (%eax),%eax
c0003012:	84 c0                	test   %al,%al
c0003014:	75 db                	jne    c0002ff1 <strrchr+0x34>
c0003016:	8b 45 f4             	mov    -0xc(%ebp),%eax
c0003019:	c9                   	leave  
c000301a:	c3                   	ret    

c000301b <strcat>:
c000301b:	55                   	push   %ebp
c000301c:	89 e5                	mov    %esp,%ebp
c000301e:	83 ec 18             	sub    $0x18,%esp
c0003021:	83 7d 08 00          	cmpl   $0x0,0x8(%ebp)
c0003025:	74 06                	je     c000302d <strcat+0x12>
c0003027:	83 7d 0c 00          	cmpl   $0x0,0xc(%ebp)
c000302b:	75 19                	jne    c0003046 <strcat+0x2b>
c000302d:	68 dd 39 00 c0       	push   $0xc00039dd
c0003032:	68 74 3a 00 c0       	push   $0xc0003a74
c0003037:	6a 6d                	push   $0x6d
c0003039:	68 d4 39 00 c0       	push   $0xc00039d4
c000303e:	e8 a4 00 00 00       	call   c00030e7 <panic_spin>
c0003043:	83 c4 10             	add    $0x10,%esp
c0003046:	8b 45 08             	mov    0x8(%ebp),%eax
c0003049:	89 45 f4             	mov    %eax,-0xc(%ebp)
c000304c:	90                   	nop
c000304d:	8b 45 f4             	mov    -0xc(%ebp),%eax
c0003050:	8d 50 01             	lea    0x1(%eax),%edx
c0003053:	89 55 f4             	mov    %edx,-0xc(%ebp)
c0003056:	0f b6 00             	movzbl (%eax),%eax
c0003059:	84 c0                	test   %al,%al
c000305b:	75 f0                	jne    c000304d <strcat+0x32>
c000305d:	83 6d f4 01          	subl   $0x1,-0xc(%ebp)
c0003061:	90                   	nop
c0003062:	8b 45 f4             	mov    -0xc(%ebp),%eax
c0003065:	8d 50 01             	lea    0x1(%eax),%edx
c0003068:	89 55 f4             	mov    %edx,-0xc(%ebp)
c000306b:	8b 55 0c             	mov    0xc(%ebp),%edx
c000306e:	8d 4a 01             	lea    0x1(%edx),%ecx
c0003071:	89 4d 0c             	mov    %ecx,0xc(%ebp)
c0003074:	0f b6 12             	movzbl (%edx),%edx
c0003077:	88 10                	mov    %dl,(%eax)
c0003079:	0f b6 00             	movzbl (%eax),%eax
c000307c:	84 c0                	test   %al,%al
c000307e:	75 e2                	jne    c0003062 <strcat+0x47>
c0003080:	8b 45 08             	mov    0x8(%ebp),%eax
c0003083:	c9                   	leave  
c0003084:	c3                   	ret    

c0003085 <strchrs>:
c0003085:	55                   	push   %ebp
c0003086:	89 e5                	mov    %esp,%ebp
c0003088:	83 ec 28             	sub    $0x28,%esp
c000308b:	8b 45 0c             	mov    0xc(%ebp),%eax
c000308e:	88 45 e4             	mov    %al,-0x1c(%ebp)
c0003091:	83 7d 08 00          	cmpl   $0x0,0x8(%ebp)
c0003095:	75 19                	jne    c00030b0 <strchrs+0x2b>
c0003097:	68 10 3a 00 c0       	push   $0xc0003a10
c000309c:	68 7c 3a 00 c0       	push   $0xc0003a7c
c00030a1:	6a 78                	push   $0x78
c00030a3:	68 d4 39 00 c0       	push   $0xc00039d4
c00030a8:	e8 3a 00 00 00       	call   c00030e7 <panic_spin>
c00030ad:	83 c4 10             	add    $0x10,%esp
c00030b0:	c7 45 f0 00 00 00 00 	movl   $0x0,-0x10(%ebp)
c00030b7:	8b 45 08             	mov    0x8(%ebp),%eax
c00030ba:	89 45 f4             	mov    %eax,-0xc(%ebp)
c00030bd:	eb 19                	jmp    c00030d8 <strchrs+0x53>
c00030bf:	8b 45 f4             	mov    -0xc(%ebp),%eax
c00030c2:	0f b6 00             	movzbl (%eax),%eax
c00030c5:	0f be d0             	movsbl %al,%edx
c00030c8:	0f b6 45 e4          	movzbl -0x1c(%ebp),%eax
c00030cc:	39 c2                	cmp    %eax,%edx
c00030ce:	75 04                	jne    c00030d4 <strchrs+0x4f>
c00030d0:	83 45 f0 01          	addl   $0x1,-0x10(%ebp)
c00030d4:	83 45 f4 01          	addl   $0x1,-0xc(%ebp)
c00030d8:	8b 45 f4             	mov    -0xc(%ebp),%eax
c00030db:	0f b6 00             	movzbl (%eax),%eax
c00030de:	84 c0                	test   %al,%al
c00030e0:	75 dd                	jne    c00030bf <strchrs+0x3a>
c00030e2:	8b 45 f0             	mov    -0x10(%ebp),%eax
c00030e5:	c9                   	leave  
c00030e6:	c3                   	ret    

c00030e7 <panic_spin>:
c00030e7:	55                   	push   %ebp
c00030e8:	89 e5                	mov    %esp,%ebp
c00030ea:	83 ec 08             	sub    $0x8,%esp
c00030ed:	e8 56 ea ff ff       	call   c0001b48 <intr_disable>
c00030f2:	83 ec 0c             	sub    $0xc,%esp
c00030f5:	68 84 3a 00 c0       	push   $0xc0003a84
c00030fa:	e8 8e 01 00 00       	call   c000328d <put_str>
c00030ff:	83 c4 10             	add    $0x10,%esp
c0003102:	83 ec 0c             	sub    $0xc,%esp
c0003105:	68 95 3a 00 c0       	push   $0xc0003a95
c000310a:	e8 7e 01 00 00       	call   c000328d <put_str>
c000310f:	83 c4 10             	add    $0x10,%esp
c0003112:	83 ec 0c             	sub    $0xc,%esp
c0003115:	ff 75 08             	pushl  0x8(%ebp)
c0003118:	e8 70 01 00 00       	call   c000328d <put_str>
c000311d:	83 c4 10             	add    $0x10,%esp
c0003120:	83 ec 0c             	sub    $0xc,%esp
c0003123:	68 9f 3a 00 c0       	push   $0xc0003a9f
c0003128:	e8 60 01 00 00       	call   c000328d <put_str>
c000312d:	83 c4 10             	add    $0x10,%esp
c0003130:	83 ec 0c             	sub    $0xc,%esp
c0003133:	68 a1 3a 00 c0       	push   $0xc0003aa1
c0003138:	e8 50 01 00 00       	call   c000328d <put_str>
c000313d:	83 c4 10             	add    $0x10,%esp
c0003140:	8b 45 0c             	mov    0xc(%ebp),%eax
c0003143:	83 ec 0c             	sub    $0xc,%esp
c0003146:	50                   	push   %eax
c0003147:	e8 5f 01 00 00       	call   c00032ab <put_int>
c000314c:	83 c4 10             	add    $0x10,%esp
c000314f:	83 ec 0c             	sub    $0xc,%esp
c0003152:	68 9f 3a 00 c0       	push   $0xc0003a9f
c0003157:	e8 31 01 00 00       	call   c000328d <put_str>
c000315c:	83 c4 10             	add    $0x10,%esp
c000315f:	83 ec 0c             	sub    $0xc,%esp
c0003162:	68 a9 3a 00 c0       	push   $0xc0003aa9
c0003167:	e8 21 01 00 00       	call   c000328d <put_str>
c000316c:	83 c4 10             	add    $0x10,%esp
c000316f:	83 ec 0c             	sub    $0xc,%esp
c0003172:	ff 75 10             	pushl  0x10(%ebp)
c0003175:	e8 13 01 00 00       	call   c000328d <put_str>
c000317a:	83 c4 10             	add    $0x10,%esp
c000317d:	83 ec 0c             	sub    $0xc,%esp
c0003180:	68 9f 3a 00 c0       	push   $0xc0003a9f
c0003185:	e8 03 01 00 00       	call   c000328d <put_str>
c000318a:	83 c4 10             	add    $0x10,%esp
c000318d:	83 ec 0c             	sub    $0xc,%esp
c0003190:	68 af 3a 00 c0       	push   $0xc0003aaf
c0003195:	e8 f3 00 00 00       	call   c000328d <put_str>
c000319a:	83 c4 10             	add    $0x10,%esp
c000319d:	83 ec 0c             	sub    $0xc,%esp
c00031a0:	ff 75 14             	pushl  0x14(%ebp)
c00031a3:	e8 e5 00 00 00       	call   c000328d <put_str>
c00031a8:	83 c4 10             	add    $0x10,%esp
c00031ab:	83 ec 0c             	sub    $0xc,%esp
c00031ae:	68 9f 3a 00 c0       	push   $0xc0003a9f
c00031b3:	e8 d5 00 00 00       	call   c000328d <put_str>
c00031b8:	83 c4 10             	add    $0x10,%esp
c00031bb:	eb fe                	jmp    c00031bb <panic_spin+0xd4>
c00031bd:	66 90                	xchg   %ax,%ax
c00031bf:	90                   	nop

c00031c0 <put_char>:
c00031c0:	60                   	pusha  
c00031c1:	66 b8 18 00          	mov    $0x18,%ax
c00031c5:	8e e8                	mov    %eax,%gs
c00031c7:	66 ba d4 03          	mov    $0x3d4,%dx
c00031cb:	b0 0e                	mov    $0xe,%al
c00031cd:	ee                   	out    %al,(%dx)
c00031ce:	66 ba d5 03          	mov    $0x3d5,%dx
c00031d2:	ec                   	in     (%dx),%al
c00031d3:	88 c4                	mov    %al,%ah
c00031d5:	66 ba d4 03          	mov    $0x3d4,%dx
c00031d9:	b0 0f                	mov    $0xf,%al
c00031db:	ee                   	out    %al,(%dx)
c00031dc:	66 ba d5 03          	mov    $0x3d5,%dx
c00031e0:	ec                   	in     (%dx),%al
c00031e1:	66 89 c3             	mov    %ax,%bx
c00031e4:	8b 4c 24 24          	mov    0x24(%esp),%ecx
c00031e8:	80 f9 0d             	cmp    $0xd,%cl
c00031eb:	74 3c                	je     c0003229 <put_char.is_ca_return>
c00031ed:	80 f9 0a             	cmp    $0xa,%cl
c00031f0:	74 37                	je     c0003229 <put_char.is_ca_return>
c00031f2:	80 f9 08             	cmp    $0x8,%cl
c00031f5:	74 02                	je     c00031f9 <put_char.is_backspace>
c00031f7:	eb 16                	jmp    c000320f <put_char.put_other>

c00031f9 <put_char.is_backspace>:
c00031f9:	66 4b                	dec    %bx
c00031fb:	66 d1 e3             	shl    %bx
c00031fe:	65 67 c6 07 20       	movb   $0x20,%gs:(%bx)
c0003203:	66 43                	inc    %bx
c0003205:	65 67 c6 07 07       	movb   $0x7,%gs:(%bx)
c000320a:	66 d1 eb             	shr    %bx
c000320d:	eb 60                	jmp    c000326f <set_cursor>

c000320f <put_char.put_other>:
c000320f:	66 d1 e3             	shl    %bx
c0003212:	65 67 88 0f          	mov    %cl,%gs:(%bx)
c0003216:	66 43                	inc    %bx
c0003218:	65 67 c6 07 07       	movb   $0x7,%gs:(%bx)
c000321d:	66 d1 eb             	shr    %bx
c0003220:	66 43                	inc    %bx
c0003222:	66 81 fb d0 07       	cmp    $0x7d0,%bx
c0003227:	7c 46                	jl     c000326f <set_cursor>

c0003229 <put_char.is_ca_return>:
c0003229:	66 31 d2             	xor    %dx,%dx
c000322c:	66 89 d8             	mov    %bx,%ax
c000322f:	66 be 50 00          	mov    $0x50,%si
c0003233:	66 f7 f6             	div    %si
c0003236:	66 29 d3             	sub    %dx,%bx

c0003239 <put_char.is_ca_return_end>:
c0003239:	66 83 c3 50          	add    $0x50,%bx
c000323d:	66 81 fb d0 07       	cmp    $0x7d0,%bx

c0003242 <put_char.is_line_feed_end>:
c0003242:	7c 2b                	jl     c000326f <set_cursor>

c0003244 <put_char.roll_screen>:
c0003244:	fc                   	cld    
c0003245:	b9 c0 03 00 00       	mov    $0x3c0,%ecx
c000324a:	be a0 80 0b c0       	mov    $0xc00b80a0,%esi
c000324f:	bf 00 80 0b c0       	mov    $0xc00b8000,%edi
c0003254:	f3 a5                	rep movsl %ds:(%esi),%es:(%edi)
c0003256:	bb 00 0f 00 00       	mov    $0xf00,%ebx
c000325b:	b9 50 00 00 00       	mov    $0x50,%ecx

c0003260 <put_char.cls>:
c0003260:	65 66 c7 03 20 07    	movw   $0x720,%gs:(%ebx)
c0003266:	83 c3 02             	add    $0x2,%ebx
c0003269:	e2 f5                	loop   c0003260 <put_char.cls>
c000326b:	66 bb 80 07          	mov    $0x780,%bx

c000326f <set_cursor>:
c000326f:	66 ba d4 03          	mov    $0x3d4,%dx
c0003273:	b0 0e                	mov    $0xe,%al
c0003275:	ee                   	out    %al,(%dx)
c0003276:	66 ba d5 03          	mov    $0x3d5,%dx
c000327a:	88 f8                	mov    %bh,%al
c000327c:	ee                   	out    %al,(%dx)
c000327d:	66 ba d4 03          	mov    $0x3d4,%dx
c0003281:	b0 0f                	mov    $0xf,%al
c0003283:	ee                   	out    %al,(%dx)
c0003284:	66 ba d5 03          	mov    $0x3d5,%dx
c0003288:	88 d8                	mov    %bl,%al
c000328a:	ee                   	out    %al,(%dx)

c000328b <set_cursor.put_char_done>:
c000328b:	61                   	popa   
c000328c:	c3                   	ret    

c000328d <put_str>:
c000328d:	53                   	push   %ebx
c000328e:	51                   	push   %ecx
c000328f:	31 c9                	xor    %ecx,%ecx
c0003291:	8b 5c 24 0c          	mov    0xc(%esp),%ebx

c0003295 <put_str.goon>:
c0003295:	8a 0b                	mov    (%ebx),%cl
c0003297:	80 f9 00             	cmp    $0x0,%cl
c000329a:	74 0c                	je     c00032a8 <put_str.str_over>
c000329c:	51                   	push   %ecx
c000329d:	e8 1e ff ff ff       	call   c00031c0 <put_char>
c00032a2:	83 c4 04             	add    $0x4,%esp
c00032a5:	43                   	inc    %ebx
c00032a6:	eb ed                	jmp    c0003295 <put_str.goon>

c00032a8 <put_str.str_over>:
c00032a8:	59                   	pop    %ecx
c00032a9:	5b                   	pop    %ebx
c00032aa:	c3                   	ret    

c00032ab <put_int>:
c00032ab:	60                   	pusha  
c00032ac:	89 e5                	mov    %esp,%ebp
c00032ae:	8b 45 24             	mov    0x24(%ebp),%eax
c00032b1:	89 c2                	mov    %eax,%edx
c00032b3:	bf 07 00 00 00       	mov    $0x7,%edi
c00032b8:	b9 08 00 00 00       	mov    $0x8,%ecx
c00032bd:	bb 20 53 00 c0       	mov    $0xc0005320,%ebx

c00032c2 <put_int.16based_4bits>:
c00032c2:	83 e2 0f             	and    $0xf,%edx
c00032c5:	83 fa 09             	cmp    $0x9,%edx
c00032c8:	7f 05                	jg     c00032cf <put_int.is_A2F>
c00032ca:	83 c2 30             	add    $0x30,%edx
c00032cd:	eb 06                	jmp    c00032d5 <put_int.store>

c00032cf <put_int.is_A2F>:
c00032cf:	83 ea 0a             	sub    $0xa,%edx
c00032d2:	83 c2 41             	add    $0x41,%edx

c00032d5 <put_int.store>:
c00032d5:	88 14 3b             	mov    %dl,(%ebx,%edi,1)
c00032d8:	4f                   	dec    %edi
c00032d9:	c1 e8 04             	shr    $0x4,%eax
c00032dc:	89 c2                	mov    %eax,%edx
c00032de:	e2 e2                	loop   c00032c2 <put_int.16based_4bits>

c00032e0 <put_int.ready_to_print>:
c00032e0:	47                   	inc    %edi

c00032e1 <put_int.skip_prefix_0>:
c00032e1:	83 ff 08             	cmp    $0x8,%edi
c00032e4:	74 0f                	je     c00032f5 <put_int.full0>

c00032e6 <put_int.go_on_skip>:
c00032e6:	8a 8f 20 53 00 c0    	mov    -0x3ffface0(%edi),%cl
c00032ec:	47                   	inc    %edi
c00032ed:	80 f9 30             	cmp    $0x30,%cl
c00032f0:	74 ef                	je     c00032e1 <put_int.skip_prefix_0>
c00032f2:	4f                   	dec    %edi
c00032f3:	eb 02                	jmp    c00032f7 <put_int.put_each_num>

c00032f5 <put_int.full0>:
c00032f5:	b1 30                	mov    $0x30,%cl

c00032f7 <put_int.put_each_num>:
c00032f7:	51                   	push   %ecx
c00032f8:	e8 c3 fe ff ff       	call   c00031c0 <put_char>
c00032fd:	83 c4 04             	add    $0x4,%esp
c0003300:	47                   	inc    %edi
c0003301:	8a 8f 20 53 00 c0    	mov    -0x3ffface0(%edi),%cl
c0003307:	83 ff 08             	cmp    $0x8,%edi
c000330a:	7c eb                	jl     c00032f7 <put_int.put_each_num>
c000330c:	61                   	popa   
c000330d:	c3                   	ret    

Disassembly of section .rodata:

c0003310 <__func__.1198-0xd0>:
c0003310:	68 65 6c 6c 6f       	push   $0x6f6c6c65
c0003315:	20 77 6f             	and    %dh,0x6f(%edi)
c0003318:	72 6c                	jb     c0003386 <put_int.put_each_num+0x8f>
c000331a:	64 2c 49             	fs sub $0x49,%al
c000331d:	20 61 6d             	and    %ah,0x6d(%ecx)
c0003320:	20 61 20             	and    %ah,0x20(%ecx)
c0003323:	6c                   	insb   (%dx),%es:(%edi)
c0003324:	69 6e 75 78 20 6c 6f 	imul   $0x6f6c2078,0x75(%esi),%ebp
c000332b:	76 65                	jbe    c0003392 <put_int.put_each_num+0x9b>
c000332d:	72 20                	jb     c000334f <put_int.put_each_num+0x58>
c000332f:	62 79 20             	bound  %edi,0x20(%ecx)
c0003332:	64 68 77 0a 00 0a    	fs push $0xa000a77
c0003338:	00 61 72             	add    %ah,0x72(%ecx)
c000333b:	67 61                	addr16 popa 
c000333d:	00 6b 5f             	add    %ch,0x5f(%ebx)
c0003340:	74 68                	je     c00033aa <put_int.put_each_num+0xb3>
c0003342:	72 65                	jb     c00033a9 <put_int.put_each_num+0xb2>
c0003344:	61                   	popa   
c0003345:	64 5f                	fs pop %edi
c0003347:	61                   	popa   
c0003348:	00 61 72             	add    %ah,0x72(%ecx)
c000334b:	67 62 00             	bound  %eax,(%bx,%si)
c000334e:	6b 5f 74 68          	imul   $0x68,0x74(%edi),%ebx
c0003352:	72 65                	jb     c00033b9 <put_int.put_each_num+0xc2>
c0003354:	61                   	popa   
c0003355:	64 5f                	fs pop %edi
c0003357:	62 00                	bound  %eax,(%eax)
c0003359:	6f                   	outsl  %ds:(%esi),(%dx)
c000335a:	6b 20 68             	imul   $0x68,(%eax),%esp
c000335d:	65 72 65             	gs jb  c00033c5 <put_int.put_each_num+0xce>
c0003360:	20 6d 61             	and    %ch,0x61(%ebp)
c0003363:	69 6e 0a 00 6d 61 69 	imul   $0x69616d00,0xa(%esi),%ebp
c000336a:	6e                   	outsb  %ds:(%esi),(%dx)
c000336b:	20 66 75             	and    %ah,0x75(%esi)
c000336e:	6e                   	outsb  %ds:(%esi),(%dx)
c000336f:	63 20                	arpl   %sp,(%eax)
c0003371:	00 00                	add    %al,(%eax)
c0003373:	00 63 75             	add    %ah,0x75(%ebx)
c0003376:	72 5f                	jb     c00033d7 <put_int.put_each_num+0xe0>
c0003378:	74 68                	je     c00033e2 <__func__.1198+0x2>
c000337a:	72 65                	jb     c00033e1 <__func__.1198+0x1>
c000337c:	61                   	popa   
c000337d:	64 2d 3e 73 74 61    	fs sub $0x6174733e,%eax
c0003383:	63 6b 5f             	arpl   %bp,0x5f(%ebx)
c0003386:	6d                   	insl   (%dx),%es:(%edi)
c0003387:	61                   	popa   
c0003388:	67 69 63 20 3d 3d 20 	imul   $0x30203d3d,0x20(%bp,%di),%esp
c000338f:	30 
c0003390:	78 31                	js     c00033c3 <put_int.put_each_num+0xcc>
c0003392:	39 38                	cmp    %edi,(%eax)
c0003394:	39 30                	cmp    %esi,(%eax)
c0003396:	32 32                	xor    (%edx),%dh
c0003398:	33 00                	xor    (%eax),%eax
c000339a:	74 69                	je     c0003405 <__func__.1198+0x25>
c000339c:	6d                   	insl   (%dx),%es:(%edi)
c000339d:	65 72 2e             	gs jb  c00033ce <put_int.put_each_num+0xd7>
c00033a0:	63 00                	arpl   %ax,(%eax)
c00033a2:	69 6e 74 6f 20 69 6e 	imul   $0x6e69206f,0x74(%esi),%ebp
c00033a9:	74 72                	je     c000341d <__func__.1198+0x3d>
c00033ab:	20 74 69 6d          	and    %dh,0x6d(%ecx,%ebp,2)
c00033af:	65 72 20             	gs jb  c00033d2 <put_int.put_each_num+0xdb>
c00033b2:	68 61 6e 64 6c       	push   $0x6c646e61
c00033b7:	65 72 0a             	gs jb  c00033c4 <put_int.put_each_num+0xcd>
c00033ba:	00 74 69 6d          	add    %dh,0x6d(%ecx,%ebp,2)
c00033be:	65 72 5f             	gs jb  c0003420 <__func__.1198+0x40>
c00033c1:	69 6e 69 74 20 73 74 	imul   $0x74732074,0x69(%esi),%ebp
c00033c8:	61                   	popa   
c00033c9:	72 74                	jb     c000343f <__func__.1198+0x5f>
c00033cb:	0a 00                	or     (%eax),%al
c00033cd:	74 69                	je     c0003438 <__func__.1198+0x58>
c00033cf:	6d                   	insl   (%dx),%es:(%edi)
c00033d0:	65 72 20             	gs jb  c00033f3 <__func__.1198+0x13>
c00033d3:	69 6e 69 74 20 64 6f 	imul   $0x6f642074,0x69(%esi),%ebp
c00033da:	6e                   	outsb  %ds:(%esi),(%dx)
c00033db:	65 0a 00             	or     %gs:(%eax),%al
	...

c00033e0 <__func__.1198>:
c00033e0:	69 6e 74 72 5f 74 69 	imul   $0x69745f72,0x74(%esi),%ebp
c00033e7:	6d                   	insl   (%dx),%es:(%edi)
c00033e8:	65 72 5f             	gs jb  c000344a <__func__.1198+0x6a>
c00033eb:	68 61 6e 64 6c       	push   $0x6c646e61
c00033f0:	65 72 00             	gs jb  c00033f3 <__func__.1198+0x13>
c00033f3:	00 21                	add    %ah,(%ecx)
c00033f5:	21 21                	and    %esp,(%ecx)
c00033f7:	21 21                	and    %esp,(%ecx)
c00033f9:	21 20                	and    %esp,(%eax)
c00033fb:	65 78 63             	gs js  c0003461 <__func__.1198+0x81>
c00033fe:	65 74 69             	gs je  c000346a <__func__.1198+0x8a>
c0003401:	6f                   	outsl  %ds:(%esi),(%dx)
c0003402:	6e                   	outsb  %ds:(%esi),(%dx)
c0003403:	20 6d 65             	and    %ch,0x65(%ebp)
c0003406:	73 73                	jae    c000347b <__func__.1198+0x9b>
c0003408:	61                   	popa   
c0003409:	67 65 20 62 65       	and    %ah,%gs:0x65(%bp,%si)
c000340e:	67 69 6e 21 21 21 21 	imul   $0xa212121,0x21(%bp),%ebp
c0003415:	0a 
c0003416:	00 0a                	add    %cl,(%edx)
c0003418:	20 70 61             	and    %dh,0x61(%eax)
c000341b:	67 65 20 66 61       	and    %ah,%gs:0x61(%bp)
c0003420:	75 6c                	jne    c000348e <__func__.1198+0xae>
c0003422:	74 20                	je     c0003444 <__func__.1198+0x64>
c0003424:	61                   	popa   
c0003425:	64 64 72 20          	fs fs jb c0003449 <__func__.1198+0x69>
c0003429:	69 73 20 00 00 00 00 	imul   $0x0,0x20(%ebx),%esi
c0003430:	0a 21                	or     (%ecx),%ah
c0003432:	21 21                	and    %esp,(%ecx)
c0003434:	20 65 78             	and    %ah,0x78(%ebp)
c0003437:	63 65 74             	arpl   %sp,0x74(%ebp)
c000343a:	69 6f 6e 20 6d 65 73 	imul   $0x73656d20,0x6e(%edi),%ebp
c0003441:	73 61                	jae    c00034a4 <__func__.1198+0xc4>
c0003443:	67 65 20 65 6e       	and    %ah,%gs:0x6e(%di)
c0003448:	64 21 21             	and    %esp,%fs:(%ecx)
c000344b:	21 21                	and    %esp,(%ecx)
c000344d:	0a 00                	or     (%eax),%al
c000344f:	75 6e                	jne    c00034bf <__func__.1198+0xdf>
c0003451:	6b 6e 6f 77          	imul   $0x77,0x6f(%esi),%ebp
c0003455:	6e                   	outsb  %ds:(%esi),(%dx)
c0003456:	00 23                	add    %ah,(%ebx)
c0003458:	44                   	inc    %esp
c0003459:	45                   	inc    %ebp
c000345a:	20 44 69 76          	and    %al,0x76(%ecx,%ebp,2)
c000345e:	69 64 65 20 45 72 72 	imul   $0x6f727245,0x20(%ebp,%eiz,2),%esp
c0003465:	6f 
c0003466:	72 00                	jb     c0003468 <__func__.1198+0x88>
c0003468:	23 44 42 20          	and    0x20(%edx,%eax,2),%eax
c000346c:	44                   	inc    %esp
c000346d:	65 62 75 67          	bound  %esi,%gs:0x67(%ebp)
c0003471:	20 45 78             	and    %al,0x78(%ebp)
c0003474:	63 65 70             	arpl   %sp,0x70(%ebp)
c0003477:	74 69                	je     c00034e2 <__func__.1198+0x102>
c0003479:	6f                   	outsl  %ds:(%esi),(%dx)
c000347a:	6e                   	outsb  %ds:(%esi),(%dx)
c000347b:	00 4e 4d             	add    %cl,0x4d(%esi)
c000347e:	49                   	dec    %ecx
c000347f:	20 49 6e             	and    %cl,0x6e(%ecx)
c0003482:	74 65                	je     c00034e9 <__func__.1198+0x109>
c0003484:	72 72                	jb     c00034f8 <__func__.1198+0x118>
c0003486:	75 70                	jne    c00034f8 <__func__.1198+0x118>
c0003488:	74 00                	je     c000348a <__func__.1198+0xaa>
c000348a:	23 42 50             	and    0x50(%edx),%eax
c000348d:	20 42 72             	and    %al,0x72(%edx)
c0003490:	65 61                	gs popa 
c0003492:	6b 70 6f 69          	imul   $0x69,0x6f(%eax),%esi
c0003496:	6e                   	outsb  %ds:(%esi),(%dx)
c0003497:	74 20                	je     c00034b9 <__func__.1198+0xd9>
c0003499:	45                   	inc    %ebp
c000349a:	78 63                	js     c00034ff <__func__.1198+0x11f>
c000349c:	65 70 74             	gs jo  c0003513 <__func__.1198+0x133>
c000349f:	69 6f 6e 00 23 4f 46 	imul   $0x464f2300,0x6e(%edi),%ebp
c00034a6:	20 4f 76             	and    %cl,0x76(%edi)
c00034a9:	65 72 66             	gs jb  c0003512 <__func__.1198+0x132>
c00034ac:	6c                   	insb   (%dx),%es:(%edi)
c00034ad:	6f                   	outsl  %ds:(%esi),(%dx)
c00034ae:	77 20                	ja     c00034d0 <__func__.1198+0xf0>
c00034b0:	45                   	inc    %ebp
c00034b1:	78 63                	js     c0003516 <__func__.1198+0x136>
c00034b3:	65 70 74             	gs jo  c000352a <__func__.1198+0x14a>
c00034b6:	69 6f 6e 00 00 00 23 	imul   $0x23000000,0x6e(%edi),%ebp
c00034bd:	42                   	inc    %edx
c00034be:	52                   	push   %edx
c00034bf:	20 42 4f             	and    %al,0x4f(%edx)
c00034c2:	55                   	push   %ebp
c00034c3:	4e                   	dec    %esi
c00034c4:	44                   	inc    %esp
c00034c5:	20 52 61             	and    %dl,0x61(%edx)
c00034c8:	6e                   	outsb  %ds:(%esi),(%dx)
c00034c9:	67 65 20 45 78       	and    %al,%gs:0x78(%di)
c00034ce:	63 65 65             	arpl   %sp,0x65(%ebp)
c00034d1:	64 65 64 20 45 78    	fs gs and %al,%fs:0x78(%ebp)
c00034d7:	63 65 70             	arpl   %sp,0x70(%ebp)
c00034da:	74 69                	je     c0003545 <__func__.1198+0x165>
c00034dc:	6f                   	outsl  %ds:(%esi),(%dx)
c00034dd:	6e                   	outsb  %ds:(%esi),(%dx)
c00034de:	00 23                	add    %ah,(%ebx)
c00034e0:	55                   	push   %ebp
c00034e1:	44                   	inc    %esp
c00034e2:	20 49 6e             	and    %cl,0x6e(%ecx)
c00034e5:	76 61                	jbe    c0003548 <__func__.1198+0x168>
c00034e7:	6c                   	insb   (%dx),%es:(%edi)
c00034e8:	69 64 20 4f 70 63 6f 	imul   $0x646f6370,0x4f(%eax,%eiz,1),%esp
c00034ef:	64 
c00034f0:	65 20 45 78          	and    %al,%gs:0x78(%ebp)
c00034f4:	63 65 70             	arpl   %sp,0x70(%ebp)
c00034f7:	74 69                	je     c0003562 <__func__.1198+0x182>
c00034f9:	6f                   	outsl  %ds:(%esi),(%dx)
c00034fa:	6e                   	outsb  %ds:(%esi),(%dx)
c00034fb:	00 23                	add    %ah,(%ebx)
c00034fd:	4e                   	dec    %esi
c00034fe:	4d                   	dec    %ebp
c00034ff:	20 44 65 76          	and    %al,0x76(%ebp,%eiz,2)
c0003503:	69 63 65 20 4e 6f 74 	imul   $0x746f4e20,0x65(%ebx),%esp
c000350a:	20 41 76             	and    %al,0x76(%ecx)
c000350d:	61                   	popa   
c000350e:	69 6c 61 62 6c 65 20 	imul   $0x4520656c,0x62(%ecx,%eiz,2),%ebp
c0003515:	45 
c0003516:	78 63                	js     c000357b <__func__.1198+0x19b>
c0003518:	65 70 74             	gs jo  c000358f <__func__.1198+0x1af>
c000351b:	69 6f 6e 00 23 44 46 	imul   $0x46442300,0x6e(%edi),%ebp
c0003522:	20 44 6f 75          	and    %al,0x75(%edi,%ebp,2)
c0003526:	62 6c 65 20          	bound  %ebp,0x20(%ebp,%eiz,2)
c000352a:	46                   	inc    %esi
c000352b:	61                   	popa   
c000352c:	75 6c                	jne    c000359a <__func__.1198+0x1ba>
c000352e:	74 20                	je     c0003550 <__func__.1198+0x170>
c0003530:	45                   	inc    %ebp
c0003531:	78 63                	js     c0003596 <__func__.1198+0x1b6>
c0003533:	65 70 74             	gs jo  c00035aa <__func__.1198+0x1ca>
c0003536:	69 6f 6e 00 43 6f 70 	imul   $0x706f4300,0x6e(%edi),%ebp
c000353d:	72 6f                	jb     c00035ae <__func__.1198+0x1ce>
c000353f:	63 65 73             	arpl   %sp,0x73(%ebp)
c0003542:	73 6f                	jae    c00035b3 <__func__.1198+0x1d3>
c0003544:	72 20                	jb     c0003566 <__func__.1198+0x186>
c0003546:	53                   	push   %ebx
c0003547:	65 67 6d             	gs insl (%dx),%es:(%di)
c000354a:	65 6e                	outsb  %gs:(%esi),(%dx)
c000354c:	74 20                	je     c000356e <__func__.1198+0x18e>
c000354e:	4f                   	dec    %edi
c000354f:	76 65                	jbe    c00035b6 <__func__.1198+0x1d6>
c0003551:	72 72                	jb     c00035c5 <__func__.1198+0x1e5>
c0003553:	75 6e                	jne    c00035c3 <__func__.1198+0x1e3>
c0003555:	00 23                	add    %ah,(%ebx)
c0003557:	54                   	push   %esp
c0003558:	53                   	push   %ebx
c0003559:	20 49 6e             	and    %cl,0x6e(%ecx)
c000355c:	76 61                	jbe    c00035bf <__func__.1198+0x1df>
c000355e:	6c                   	insb   (%dx),%es:(%edi)
c000355f:	69 64 20 54 53 53 20 	imul   $0x45205353,0x54(%eax,%eiz,1),%esp
c0003566:	45 
c0003567:	78 63                	js     c00035cc <__func__.1198+0x1ec>
c0003569:	65 70 74             	gs jo  c00035e0 <__func__.1198+0x200>
c000356c:	69 6f 6e 00 23 4e 50 	imul   $0x504e2300,0x6e(%edi),%ebp
c0003573:	20 53 65             	and    %dl,0x65(%ebx)
c0003576:	67 6d                	insl   (%dx),%es:(%di)
c0003578:	65 6e                	outsb  %gs:(%esi),(%dx)
c000357a:	74 20                	je     c000359c <__func__.1198+0x1bc>
c000357c:	4e                   	dec    %esi
c000357d:	6f                   	outsl  %ds:(%esi),(%dx)
c000357e:	74 20                	je     c00035a0 <__func__.1198+0x1c0>
c0003580:	50                   	push   %eax
c0003581:	72 65                	jb     c00035e8 <__func__.1198+0x208>
c0003583:	73 65                	jae    c00035ea <__func__.1198+0x20a>
c0003585:	6e                   	outsb  %ds:(%esi),(%dx)
c0003586:	74 00                	je     c0003588 <__func__.1198+0x1a8>
c0003588:	23 53 53             	and    0x53(%ebx),%edx
c000358b:	20 53 74             	and    %dl,0x74(%ebx)
c000358e:	61                   	popa   
c000358f:	63 6b 20             	arpl   %bp,0x20(%ebx)
c0003592:	46                   	inc    %esi
c0003593:	61                   	popa   
c0003594:	75 6c                	jne    c0003602 <__func__.1198+0x222>
c0003596:	74 20                	je     c00035b8 <__func__.1198+0x1d8>
c0003598:	45                   	inc    %ebp
c0003599:	78 63                	js     c00035fe <__func__.1198+0x21e>
c000359b:	65 70 74             	gs jo  c0003612 <__func__.1198+0x232>
c000359e:	69 6f 6e 00 00 00 23 	imul   $0x23000000,0x6e(%edi),%ebp
c00035a5:	47                   	inc    %edi
c00035a6:	50                   	push   %eax
c00035a7:	20 47 65             	and    %al,0x65(%edi)
c00035aa:	6e                   	outsb  %ds:(%esi),(%dx)
c00035ab:	65 72 61             	gs jb  c000360f <__func__.1198+0x22f>
c00035ae:	6c                   	insb   (%dx),%es:(%edi)
c00035af:	20 50 72             	and    %dl,0x72(%eax)
c00035b2:	6f                   	outsl  %ds:(%esi),(%dx)
c00035b3:	74 65                	je     c000361a <__func__.1198+0x23a>
c00035b5:	63 74 69 6f          	arpl   %si,0x6f(%ecx,%ebp,2)
c00035b9:	6e                   	outsb  %ds:(%esi),(%dx)
c00035ba:	20 45 78             	and    %al,0x78(%ebp)
c00035bd:	63 65 70             	arpl   %sp,0x70(%ebp)
c00035c0:	74 69                	je     c000362b <__func__.1198+0x24b>
c00035c2:	6f                   	outsl  %ds:(%esi),(%dx)
c00035c3:	6e                   	outsb  %ds:(%esi),(%dx)
c00035c4:	00 23                	add    %ah,(%ebx)
c00035c6:	50                   	push   %eax
c00035c7:	46                   	inc    %esi
c00035c8:	20 50 61             	and    %dl,0x61(%eax)
c00035cb:	67 65 2d 46 61 75 6c 	addr16 gs sub $0x6c756146,%eax
c00035d2:	74 20                	je     c00035f4 <__func__.1198+0x214>
c00035d4:	45                   	inc    %ebp
c00035d5:	78 63                	js     c000363a <__func__.1198+0x25a>
c00035d7:	65 70 74             	gs jo  c000364e <__func__.1198+0x26e>
c00035da:	69 6f 6e 00 00 00 23 	imul   $0x23000000,0x6e(%edi),%ebp
c00035e1:	4d                   	dec    %ebp
c00035e2:	46                   	inc    %esi
c00035e3:	20 78 38             	and    %bh,0x38(%eax)
c00035e6:	37                   	aaa    
c00035e7:	20 46 50             	and    %al,0x50(%esi)
c00035ea:	55                   	push   %ebp
c00035eb:	20 46 6c             	and    %al,0x6c(%esi)
c00035ee:	6f                   	outsl  %ds:(%esi),(%dx)
c00035ef:	61                   	popa   
c00035f0:	74 69                	je     c000365b <__func__.1198+0x27b>
c00035f2:	6e                   	outsb  %ds:(%esi),(%dx)
c00035f3:	67 2d 50 6f 69 6e    	addr16 sub $0x6e696f50,%eax
c00035f9:	74 20                	je     c000361b <__func__.1198+0x23b>
c00035fb:	45                   	inc    %ebp
c00035fc:	72 72                	jb     c0003670 <__func__.1198+0x290>
c00035fe:	6f                   	outsl  %ds:(%esi),(%dx)
c00035ff:	72 00                	jb     c0003601 <__func__.1198+0x221>
c0003601:	23 41 43             	and    0x43(%ecx),%eax
c0003604:	20 41 6c             	and    %al,0x6c(%ecx)
c0003607:	69 67 6e 6d 65 6e 74 	imul   $0x746e656d,0x6e(%edi),%esp
c000360e:	20 43 68             	and    %al,0x68(%ebx)
c0003611:	65 63 6b 20          	arpl   %bp,%gs:0x20(%ebx)
c0003615:	45                   	inc    %ebp
c0003616:	78 63                	js     c000367b <__func__.1198+0x29b>
c0003618:	65 70 74             	gs jo  c000368f <__func__.1198+0x2af>
c000361b:	69 6f 6e 00 23 4d 43 	imul   $0x434d2300,0x6e(%edi),%ebp
c0003622:	20 4d 61             	and    %cl,0x61(%ebp)
c0003625:	63 68 69             	arpl   %bp,0x69(%eax)
c0003628:	6e                   	outsb  %ds:(%esi),(%dx)
c0003629:	65 2d 43 68 65 63    	gs sub $0x63656843,%eax
c000362f:	6b 20 45             	imul   $0x45,(%eax),%esp
c0003632:	78 63                	js     c0003697 <__func__.1198+0x2b7>
c0003634:	65 70 74             	gs jo  c00036ab <__func__.1198+0x2cb>
c0003637:	69 6f 6e 00 00 23 58 	imul   $0x58230000,0x6e(%edi),%ebp
c000363e:	46                   	inc    %esi
c000363f:	20 53 49             	and    %dl,0x49(%ebx)
c0003642:	4d                   	dec    %ebp
c0003643:	44                   	inc    %esp
c0003644:	20 46 6c             	and    %al,0x6c(%esi)
c0003647:	6f                   	outsl  %ds:(%esi),(%dx)
c0003648:	61                   	popa   
c0003649:	74 69                	je     c00036b4 <__func__.1198+0x2d4>
c000364b:	6e                   	outsb  %ds:(%esi),(%dx)
c000364c:	67 2d 50 6f 69 6e    	addr16 sub $0x6e696f50,%eax
c0003652:	74 20                	je     c0003674 <__func__.1198+0x294>
c0003654:	45                   	inc    %ebp
c0003655:	78 63                	js     c00036ba <__func__.1198+0x2da>
c0003657:	65 70 74             	gs jo  c00036ce <__func__.1198+0x2ee>
c000365a:	69 6f 6e 00 69 64 74 	imul   $0x74646900,0x6e(%edi),%ebp
c0003661:	20 64 65 73          	and    %ah,0x73(%ebp,%eiz,2)
c0003665:	63 20                	arpl   %sp,(%eax)
c0003667:	69 6e 69 74 20 64 6f 	imul   $0x6f642074,0x69(%esi),%ebp
c000366e:	6e                   	outsb  %ds:(%esi),(%dx)
c000366f:	65 0a 00             	or     %gs:(%eax),%al
c0003672:	69 64 74 20 69 6e 69 	imul   $0x74696e69,0x20(%esp,%esi,2),%esp
c0003679:	74 
c000367a:	20 64 6f 6e          	and    %ah,0x6e(%edi,%ebp,2)
c000367e:	65 0a 00             	or     %gs:(%eax),%al
c0003681:	69 64 74 20 69 6e 69 	imul   $0x74696e69,0x20(%esp,%esi,2),%esp
c0003688:	74 
c0003689:	20 73 74             	and    %dh,0x74(%ebx)
c000368c:	61                   	popa   
c000368d:	72 74                	jb     c0003703 <__func__.1198+0x323>
c000368f:	0a 00                	or     (%eax),%al
c0003691:	00 00                	add    %al,(%eax)
c0003693:	00 69 6e             	add    %ch,0x6e(%ecx)
c0003696:	74 72                	je     c000370a <__func__.1198+0x32a>
c0003698:	5f                   	pop    %edi
c0003699:	67 65 74 5f          	addr16 gs je c00036fc <__func__.1198+0x31c>
c000369d:	73 74                	jae    c0003713 <__func__.1198+0x333>
c000369f:	61                   	popa   
c00036a0:	74 75                	je     c0003717 <__func__.1198+0x337>
c00036a2:	73 28                	jae    c00036cc <__func__.1198+0x2ec>
c00036a4:	29 20                	sub    %esp,(%eax)
c00036a6:	3d 3d 20 49 4e       	cmp    $0x4e49203d,%eax
c00036ab:	54                   	push   %esp
c00036ac:	52                   	push   %edx
c00036ad:	5f                   	pop    %edi
c00036ae:	4f                   	dec    %edi
c00036af:	46                   	inc    %esi
c00036b0:	46                   	inc    %esi
c00036b1:	00 74 68 72          	add    %dh,0x72(%eax,%ebp,2)
c00036b5:	65 61                	gs popa 
c00036b7:	64 2e 63 00          	fs arpl %ax,%cs:(%eax)
c00036bb:	00 21                	add    %ah,(%ecx)
c00036bd:	65 6c                	gs insb (%dx),%es:(%edi)
c00036bf:	65 6d                	gs insl (%dx),%es:(%edi)
c00036c1:	5f                   	pop    %edi
c00036c2:	66 69 6e 64 28 26    	imul   $0x2628,0x64(%esi),%bp
c00036c8:	74 68                	je     c0003732 <__func__.1198+0x352>
c00036ca:	72 65                	jb     c0003731 <__func__.1198+0x351>
c00036cc:	61                   	popa   
c00036cd:	64 5f                	fs pop %edi
c00036cf:	72 65                	jb     c0003736 <__func__.1198+0x356>
c00036d1:	61                   	popa   
c00036d2:	64 79 5f             	fs jns c0003734 <__func__.1198+0x354>
c00036d5:	6c                   	insb   (%dx),%es:(%edi)
c00036d6:	69 73 74 2c 26 63 75 	imul   $0x7563262c,0x74(%ebx),%esi
c00036dd:	72 2d                	jb     c000370c <__func__.1198+0x32c>
c00036df:	3e 67 65 6e          	ds outsb %gs:(%si),(%dx)
c00036e3:	65 72 61             	gs jb  c0003747 <__func__.1198+0x367>
c00036e6:	6c                   	insb   (%dx),%es:(%edi)
c00036e7:	5f                   	pop    %edi
c00036e8:	74 61                	je     c000374b <__func__.1198+0x36b>
c00036ea:	67 29 00             	sub    %eax,(%bx,%si)
c00036ed:	00 00                	add    %al,(%eax)
c00036ef:	00 21                	add    %ah,(%ecx)
c00036f1:	6c                   	insb   (%dx),%es:(%edi)
c00036f2:	69 73 74 5f 65 6d 70 	imul   $0x706d655f,0x74(%ebx),%esi
c00036f9:	74 79                	je     c0003774 <__func__.1198+0x394>
c00036fb:	28 26                	sub    %ah,(%esi)
c00036fd:	74 68                	je     c0003767 <__func__.1198+0x387>
c00036ff:	72 65                	jb     c0003766 <__func__.1198+0x386>
c0003701:	61                   	popa   
c0003702:	64 5f                	fs pop %edi
c0003704:	72 65                	jb     c000376b <__func__.1198+0x38b>
c0003706:	61                   	popa   
c0003707:	64 79 5f             	fs jns c0003769 <__func__.1198+0x389>
c000370a:	6c                   	insb   (%dx),%es:(%edi)
c000370b:	69 73 74 29 00 21 65 	imul   $0x65210029,0x74(%ebx),%esi
c0003712:	6c                   	insb   (%dx),%es:(%edi)
c0003713:	65 6d                	gs insl (%dx),%es:(%edi)
c0003715:	5f                   	pop    %edi
c0003716:	66 69 6e 64 28 26    	imul   $0x2628,0x64(%esi),%bp
c000371c:	74 68                	je     c0003786 <__func__.1198+0x3a6>
c000371e:	72 65                	jb     c0003785 <__func__.1198+0x3a5>
c0003720:	61                   	popa   
c0003721:	64 5f                	fs pop %edi
c0003723:	72 65                	jb     c000378a <__func__.1198+0x3aa>
c0003725:	61                   	popa   
c0003726:	64 79 5f             	fs jns c0003788 <__func__.1198+0x3a8>
c0003729:	6c                   	insb   (%dx),%es:(%edi)
c000372a:	69 73 74 2c 26 74 68 	imul   $0x6874262c,0x74(%ebx),%esi
c0003731:	72 65                	jb     c0003798 <__func__.1198+0x3b8>
c0003733:	61                   	popa   
c0003734:	64 2d 3e 67 65 6e    	fs sub $0x6e65673e,%eax
c000373a:	65 72 61             	gs jb  c000379e <__func__.1198+0x3be>
c000373d:	6c                   	insb   (%dx),%es:(%edi)
c000373e:	5f                   	pop    %edi
c000373f:	74 61                	je     c00037a2 <__func__.1198+0x3c2>
c0003741:	67 29 00             	sub    %eax,(%bx,%si)
c0003744:	21 65 6c             	and    %esp,0x6c(%ebp)
c0003747:	65 6d                	gs insl (%dx),%es:(%edi)
c0003749:	5f                   	pop    %edi
c000374a:	66 69 6e 64 28 26    	imul   $0x2628,0x64(%esi),%bp
c0003750:	74 68                	je     c00037ba <__func__.1198+0x3da>
c0003752:	72 65                	jb     c00037b9 <__func__.1198+0x3d9>
c0003754:	61                   	popa   
c0003755:	64 5f                	fs pop %edi
c0003757:	61                   	popa   
c0003758:	6c                   	insb   (%dx),%es:(%edi)
c0003759:	6c                   	insb   (%dx),%es:(%edi)
c000375a:	5f                   	pop    %edi
c000375b:	6c                   	insb   (%dx),%es:(%edi)
c000375c:	69 73 74 2c 26 74 68 	imul   $0x6874262c,0x74(%ebx),%esi
c0003763:	72 65                	jb     c00037ca <__func__.1198+0x3ea>
c0003765:	61                   	popa   
c0003766:	64 2d 3e 61 6c 6c    	fs sub $0x6c6c613e,%eax
c000376c:	5f                   	pop    %edi
c000376d:	6c                   	insb   (%dx),%es:(%edi)
c000376e:	69 73 74 5f 74 61 67 	imul   $0x6761745f,0x74(%ebx),%esi
c0003775:	29 00                	sub    %eax,(%eax)
c0003777:	6d                   	insl   (%dx),%es:(%edi)
c0003778:	61                   	popa   
c0003779:	69 6e 00 21 65 6c 65 	imul   $0x656c6521,0x0(%esi),%ebp
c0003780:	6d                   	insl   (%dx),%es:(%edi)
c0003781:	5f                   	pop    %edi
c0003782:	66 69 6e 64 28 26    	imul   $0x2628,0x64(%esi),%bp
c0003788:	74 68                	je     c00037f2 <__func__.1225+0xa>
c000378a:	72 65                	jb     c00037f1 <__func__.1225+0x9>
c000378c:	61                   	popa   
c000378d:	64 5f                	fs pop %edi
c000378f:	61                   	popa   
c0003790:	6c                   	insb   (%dx),%es:(%edi)
c0003791:	6c                   	insb   (%dx),%es:(%edi)
c0003792:	5f                   	pop    %edi
c0003793:	6c                   	insb   (%dx),%es:(%edi)
c0003794:	69 73 74 2c 26 6d 61 	imul   $0x616d262c,0x74(%ebx),%esi
c000379b:	69 6e 5f 74 68 72 65 	imul   $0x65726874,0x5f(%esi),%ebp
c00037a2:	61                   	popa   
c00037a3:	64 2d 3e 61 6c 6c    	fs sub $0x6c6c613e,%eax
c00037a9:	5f                   	pop    %edi
c00037aa:	6c                   	insb   (%dx),%es:(%edi)
c00037ab:	69 73 74 5f 74 61 67 	imul   $0x6761745f,0x74(%ebx),%esi
c00037b2:	29 00                	sub    %eax,(%eax)
c00037b4:	74 68                	je     c000381e <__func__.1229+0x26>
c00037b6:	72 65                	jb     c000381d <__func__.1229+0x25>
c00037b8:	61                   	popa   
c00037b9:	64 20 69 6e          	and    %ch,%fs:0x6e(%ecx)
c00037bd:	69 74 20 73 74 61 72 	imul   $0x74726174,0x73(%eax,%eiz,1),%esi
c00037c4:	74 
c00037c5:	0a 00                	or     (%eax),%al
c00037c7:	74 68                	je     c0003831 <__func__.1229+0x39>
c00037c9:	72 65                	jb     c0003830 <__func__.1229+0x38>
c00037cb:	61                   	popa   
c00037cc:	64 20 69 6e          	and    %ch,%fs:0x6e(%ecx)
c00037d0:	69 74 20 64 6f 6e 65 	imul   $0xa656e6f,0x64(%eax,%eiz,1),%esi
c00037d7:	0a 
c00037d8:	00 00                	add    %al,(%eax)
	...

c00037dc <__func__.1200>:
c00037dc:	73 63                	jae    c0003841 <__func__.1229+0x49>
c00037de:	68 65 64 75 6c       	push   $0x6c756465
c00037e3:	65 00 00             	add    %al,%gs:(%eax)
	...

c00037e8 <__func__.1225>:
c00037e8:	74 68                	je     c0003852 <__func__.1229+0x5a>
c00037ea:	72 65                	jb     c0003851 <__func__.1229+0x59>
c00037ec:	61                   	popa   
c00037ed:	64 5f                	fs pop %edi
c00037ef:	73 74                	jae    c0003865 <__func__.1229+0x6d>
c00037f1:	61                   	popa   
c00037f2:	72 74                	jb     c0003868 <__func__.1229+0x70>
c00037f4:	00 00                	add    %al,(%eax)
	...

c00037f8 <__func__.1229>:
c00037f8:	6d                   	insl   (%dx),%es:(%edi)
c00037f9:	61                   	popa   
c00037fa:	6b 65 5f 6d          	imul   $0x6d,0x5f(%ebp),%esp
c00037fe:	61                   	popa   
c00037ff:	69 6e 5f 74 68 72 65 	imul   $0x65726874,0x5f(%esi),%ebp
c0003806:	61                   	popa   
c0003807:	64 00 00             	add    %al,%fs:(%eax)
c000380a:	00 00                	add    %al,(%eax)
c000380c:	21 28                	and    %ebp,(%eax)
c000380e:	2a 70 74             	sub    0x74(%eax),%dh
c0003811:	65 20 26             	and    %ah,%gs:(%esi)
c0003814:	20 30                	and    %dh,(%eax)
c0003816:	78 30                	js     c0003848 <__func__.1229+0x50>
c0003818:	30 30                	xor    %dh,(%eax)
c000381a:	30 30                	xor    %dh,(%eax)
c000381c:	30 30                	xor    %dh,(%eax)
c000381e:	31 29                	xor    %ebp,(%ecx)
c0003820:	00 6d 65             	add    %ch,0x65(%ebp)
c0003823:	6d                   	insl   (%dx),%es:(%edi)
c0003824:	6f                   	outsl  %ds:(%esi),(%dx)
c0003825:	72 79                	jb     c00038a0 <__func__.1229+0xa8>
c0003827:	2e 63 00             	arpl   %ax,%cs:(%eax)
c000382a:	70 74                	jo     c00038a0 <__func__.1229+0xa8>
c000382c:	65 20 72 65          	and    %dh,%gs:0x65(%edx)
c0003830:	70 65                	jo     c0003897 <__func__.1229+0x9f>
c0003832:	61                   	popa   
c0003833:	74 00                	je     c0003835 <__func__.1229+0x3d>
c0003835:	70 67                	jo     c000389e <__func__.1229+0xa6>
c0003837:	5f                   	pop    %edi
c0003838:	63 6e 74             	arpl   %bp,0x74(%esi)
c000383b:	20 3e                	and    %bh,(%esi)
c000383d:	20 30                	and    %dh,(%eax)
c000383f:	20 26                	and    %ah,(%esi)
c0003841:	26 20 70 67          	and    %dh,%es:0x67(%eax)
c0003845:	5f                   	pop    %edi
c0003846:	63 6e 74             	arpl   %bp,0x74(%esi)
c0003849:	20 3c 20             	and    %bh,(%eax,%eiz,1)
c000384c:	33 38                	xor    (%eax),%edi
c000384e:	34 30                	xor    $0x30,%al
c0003850:	00 0a                	add    %cl,(%edx)
c0003852:	20 70 61             	and    %dh,0x61(%eax)
c0003855:	67 65 20 70 68       	and    %dh,%gs:0x68(%bx,%si)
c000385a:	79 61                	jns    c00038bd <__func__.1229+0xc5>
c000385c:	64 64 72 20          	fs fs jb c0003880 <__func__.1229+0x88>
c0003860:	69 73 20 4e 55 4c 4c 	imul   $0x4c4c554e,0x20(%ebx),%esi
c0003867:	0a 00                	or     (%eax),%al
c0003869:	67 65 74 20          	addr16 gs je c000388d <__func__.1229+0x95>
c000386d:	6b 65 72 6e          	imul   $0x6e,0x72(%ebp),%esp
c0003871:	6c                   	insb   (%dx),%es:(%edi)
c0003872:	65 20 70 61          	and    %dh,%gs:0x61(%eax)
c0003876:	67 65 20 76 61       	and    %dh,%gs:0x61(%bp)
c000387b:	64 64 72 3a          	fs fs jb c00038b9 <__func__.1229+0xc1>
c000387f:	20 00                	and    %al,(%eax)
c0003881:	0a 00                	or     (%eax),%al
c0003883:	6d                   	insl   (%dx),%es:(%edi)
c0003884:	65 6d                	gs insl (%dx),%es:(%edi)
c0003886:	20 70 6f             	and    %dh,0x6f(%eax)
c0003889:	6f                   	outsl  %ds:(%esi),(%dx)
c000388a:	6c                   	insb   (%dx),%es:(%edi)
c000388b:	20 69 6e             	and    %ch,0x6e(%ecx)
c000388e:	69 74 20 73 74 61 72 	imul   $0x74726174,0x73(%eax,%eiz,1),%esi
c0003895:	74 
c0003896:	0a 00                	or     (%eax),%al
c0003898:	6b 65 72 6e          	imul   $0x6e,0x72(%ebp),%esp
c000389c:	65 6c                	gs insb (%dx),%es:(%edi)
c000389e:	20 70 6f             	and    %dh,0x6f(%eax)
c00038a1:	6f                   	outsl  %ds:(%esi),(%dx)
c00038a2:	6c                   	insb   (%dx),%es:(%edi)
c00038a3:	20 62 69             	and    %ah,0x69(%edx)
c00038a6:	74 6d                	je     c0003915 <__func__.1229+0x11d>
c00038a8:	61                   	popa   
c00038a9:	70 20                	jo     c00038cb <__func__.1229+0xd3>
c00038ab:	73 74                	jae    c0003921 <__func__.1229+0x129>
c00038ad:	61                   	popa   
c00038ae:	72 74                	jb     c0003924 <__func__.1229+0x12c>
c00038b0:	3a 20                	cmp    (%eax),%ah
c00038b2:	00 0a                	add    %cl,(%edx)
c00038b4:	6b 65 72 6e          	imul   $0x6e,0x72(%ebp),%esp
c00038b8:	65 6c                	gs insb (%dx),%es:(%edi)
c00038ba:	20 70 6f             	and    %dh,0x6f(%eax)
c00038bd:	6f                   	outsl  %ds:(%esi),(%dx)
c00038be:	6c                   	insb   (%dx),%es:(%edi)
c00038bf:	20 70 68             	and    %dh,0x68(%eax)
c00038c2:	79 20                	jns    c00038e4 <__func__.1229+0xec>
c00038c4:	61                   	popa   
c00038c5:	64 64 72 20          	fs fs jb c00038e9 <__func__.1229+0xf1>
c00038c9:	73 74                	jae    c000393f <__func__.1229+0x147>
c00038cb:	61                   	popa   
c00038cc:	72 74                	jb     c0003942 <__func__.1229+0x14a>
c00038ce:	3a 00                	cmp    (%eax),%al
c00038d0:	75 73                	jne    c0003945 <__func__.1229+0x14d>
c00038d2:	65 72 20             	gs jb  c00038f5 <__func__.1229+0xfd>
c00038d5:	70 6f                	jo     c0003946 <__func__.1229+0x14e>
c00038d7:	6f                   	outsl  %ds:(%esi),(%dx)
c00038d8:	6c                   	insb   (%dx),%es:(%edi)
c00038d9:	20 62 69             	and    %ah,0x69(%edx)
c00038dc:	74 6d                	je     c000394b <__func__.1229+0x153>
c00038de:	61                   	popa   
c00038df:	70 20                	jo     c0003901 <__func__.1229+0x109>
c00038e1:	73 74                	jae    c0003957 <__func__.1116+0x7>
c00038e3:	61                   	popa   
c00038e4:	72 74                	jb     c000395a <__func__.1116+0xa>
c00038e6:	3a 00                	cmp    (%eax),%al
c00038e8:	0a 75 73             	or     0x73(%ebp),%dh
c00038eb:	65 72 20             	gs jb  c000390e <__func__.1229+0x116>
c00038ee:	70 6f                	jo     c000395f <__func__.1116+0xf>
c00038f0:	6f                   	outsl  %ds:(%esi),(%dx)
c00038f1:	6c                   	insb   (%dx),%es:(%edi)
c00038f2:	20 70 68             	and    %dh,0x68(%eax)
c00038f5:	79 20                	jns    c0003917 <__func__.1229+0x11f>
c00038f7:	61                   	popa   
c00038f8:	64 64 72 20          	fs fs jb c000391c <__func__.1229+0x124>
c00038fc:	73 74                	jae    c0003972 <__func__.1122+0x12>
c00038fe:	61                   	popa   
c00038ff:	72 74                	jb     c0003975 <__func__.1122+0x15>
c0003901:	3a 00                	cmp    (%eax),%al
c0003903:	6b 65 72 6e          	imul   $0x6e,0x72(%ebp),%esp
c0003907:	65 6c                	gs insb (%dx),%es:(%edi)
c0003909:	20 70 6f             	and    %dh,0x6f(%eax)
c000390c:	6f                   	outsl  %ds:(%esi),(%dx)
c000390d:	6c                   	insb   (%dx),%es:(%edi)
c000390e:	20 62 69             	and    %ah,0x69(%edx)
c0003911:	74 6d                	je     c0003980 <__func__.1122+0x20>
c0003913:	61                   	popa   
c0003914:	70 20                	jo     c0003936 <__func__.1229+0x13e>
c0003916:	73 69                	jae    c0003981 <__func__.1122+0x21>
c0003918:	7a 65                	jp     c000397f <__func__.1122+0x1f>
c000391a:	3a 20                	cmp    (%eax),%ah
c000391c:	00 0a                	add    %cl,(%edx)
c000391e:	6d                   	insl   (%dx),%es:(%edi)
c000391f:	65 6d                	gs insl (%dx),%es:(%edi)
c0003921:	70 6f                	jo     c0003992 <__func__.1122+0x32>
c0003923:	6f                   	outsl  %ds:(%esi),(%dx)
c0003924:	6c                   	insb   (%dx),%es:(%edi)
c0003925:	20 69 6e             	and    %ch,0x6e(%ecx)
c0003928:	69 74 20 64 6f 6e 65 	imul   $0xa656e6f,0x64(%eax,%eiz,1),%esi
c000392f:	0a 
c0003930:	00 6d 65             	add    %ch,0x65(%ebp)
c0003933:	6d                   	insl   (%dx),%es:(%edi)
c0003934:	20 69 6e             	and    %ch,0x6e(%ecx)
c0003937:	69 74 20 73 74 61 72 	imul   $0x74726174,0x73(%eax,%eiz,1),%esi
c000393e:	74 
c000393f:	0a 00                	or     (%eax),%al
c0003941:	6d                   	insl   (%dx),%es:(%edi)
c0003942:	65 6d                	gs insl (%dx),%es:(%edi)
c0003944:	20 69 6e             	and    %ch,0x6e(%ecx)
c0003947:	69 74 20 64 6f 6e 65 	imul   $0xa656e6f,0x64(%eax,%eiz,1),%esi
c000394e:	0a 
	...

c0003950 <__func__.1116>:
c0003950:	70 61                	jo     c00039b3 <__func__.1085+0x3>
c0003952:	67 65 5f             	addr16 gs pop %edi
c0003955:	74 61                	je     c00039b8 <__func__.1085+0x8>
c0003957:	62 6c 65 5f          	bound  %ebp,0x5f(%ebp,%eiz,2)
c000395b:	61                   	popa   
c000395c:	64 64 00 00          	fs add %al,%fs:(%eax)

c0003960 <__func__.1122>:
c0003960:	6d                   	insl   (%dx),%es:(%edi)
c0003961:	61                   	popa   
c0003962:	6c                   	insb   (%dx),%es:(%edi)
c0003963:	6c                   	insb   (%dx),%es:(%edi)
c0003964:	6f                   	outsl  %ds:(%esi),(%dx)
c0003965:	63 5f 70             	arpl   %bx,0x70(%edi)
c0003968:	61                   	popa   
c0003969:	67 65 00 69 64       	add    %ch,%gs:0x64(%bx,%di)
c000396e:	78 5f                	js     c00039cf <__func__.1102+0x13>
c0003970:	62 79 74             	bound  %edi,0x74(%ecx)
c0003973:	65 20 3c 20          	and    %bh,%gs:(%eax,%eiz,1)
c0003977:	62 6d 61             	bound  %ebp,0x61(%ebp)
c000397a:	70 2d                	jo     c00039a9 <__func__.1122+0x49>
c000397c:	3e 62 69 74          	bound  %ebp,%ds:0x74(%ecx)
c0003980:	6d                   	insl   (%dx),%es:(%edi)
c0003981:	61                   	popa   
c0003982:	70 5f                	jo     c00039e3 <__func__.1102+0x27>
c0003984:	62 79 74             	bound  %edi,0x74(%ecx)
c0003987:	65 73 5f             	gs jae c00039e9 <__func__.1102+0x2d>
c000398a:	6c                   	insb   (%dx),%es:(%edi)
c000398b:	65 6e                	outsb  %gs:(%esi),(%dx)
c000398d:	00 62 69             	add    %ah,0x69(%edx)
c0003990:	74 6d                	je     c00039ff <__func__.1102+0x43>
c0003992:	61                   	popa   
c0003993:	70 2e                	jo     c00039c3 <__func__.1102+0x7>
c0003995:	63 00                	arpl   %ax,(%eax)
c0003997:	76 61                	jbe    c00039fa <__func__.1102+0x3e>
c0003999:	6c                   	insb   (%dx),%es:(%edi)
c000399a:	75 65                	jne    c0003a01 <__func__.1102+0x45>
c000399c:	20 3d 3d 20 30 20    	and    %bh,0x2030203d
c00039a2:	7c 7c                	jl     c0003a20 <__func__.1102+0x64>
c00039a4:	20 76 61             	and    %dh,0x61(%esi)
c00039a7:	6c                   	insb   (%dx),%es:(%edi)
c00039a8:	75 65                	jne    c0003a0f <__func__.1102+0x53>
c00039aa:	20 3d 3d 20 31 00    	and    %bh,0x31203d

c00039b0 <__func__.1085>:
c00039b0:	62 69 74             	bound  %ebp,0x74(%ecx)
c00039b3:	6d                   	insl   (%dx),%es:(%edi)
c00039b4:	61                   	popa   
c00039b5:	70 5f                	jo     c0003a16 <__func__.1102+0x5a>
c00039b7:	73 63                	jae    c0003a1c <__func__.1102+0x60>
c00039b9:	61                   	popa   
c00039ba:	6e                   	outsb  %ds:(%esi),(%dx)
	...

c00039bc <__func__.1102>:
c00039bc:	62 69 74             	bound  %ebp,0x74(%ecx)
c00039bf:	6d                   	insl   (%dx),%es:(%edi)
c00039c0:	61                   	popa   
c00039c1:	70 5f                	jo     c0003a22 <__func__.1102+0x66>
c00039c3:	73 65                	jae    c0003a2a <__func__.1102+0x6e>
c00039c5:	74 00                	je     c00039c7 <__func__.1102+0xb>
c00039c7:	00 64 73 74          	add    %ah,0x74(%ebx,%esi,2)
c00039cb:	20 21                	and    %ah,(%ecx)
c00039cd:	3d 20 4e 55 4c       	cmp    $0x4c554e20,%eax
c00039d2:	4c                   	dec    %esp
c00039d3:	00 73 74             	add    %dh,0x74(%ebx)
c00039d6:	72 69                	jb     c0003a41 <__func__.1070+0x5>
c00039d8:	6e                   	outsb  %ds:(%esi),(%dx)
c00039d9:	67 2e 63 00          	arpl   %ax,%cs:(%bx,%si)
c00039dd:	64 73 74             	fs jae c0003a54 <__func__.1099>
c00039e0:	5f                   	pop    %edi
c00039e1:	20 21                	and    %ah,(%ecx)
c00039e3:	3d 20 4e 55 4c       	cmp    $0x4c554e20,%eax
c00039e8:	4c                   	dec    %esp
c00039e9:	20 26                	and    %ah,(%esi)
c00039eb:	26 20 73 72          	and    %dh,%es:0x72(%ebx)
c00039ef:	63 5f 20             	arpl   %bx,0x20(%edi)
c00039f2:	21 3d 20 4e 55 4c    	and    %edi,0x4c554e20
c00039f8:	4c                   	dec    %esp
c00039f9:	00 61 21             	add    %ah,0x21(%ecx)
c00039fc:	3d 20 4e 55 4c       	cmp    $0x4c554e20,%eax
c0003a01:	4c                   	dec    %esp
c0003a02:	20 7c 7c 20          	and    %bh,0x20(%esp,%edi,2)
c0003a06:	62 20                	bound  %esp,(%eax)
c0003a08:	21 3d 20 4e 55 4c    	and    %edi,0x4c554e20
c0003a0e:	4c                   	dec    %esp
c0003a0f:	00 73 74             	add    %dh,0x74(%ebx)
c0003a12:	72 20                	jb     c0003a34 <__func__.1060>
c0003a14:	21 3d 20 4e 55 4c    	and    %edi,0x4c554e20
c0003a1a:	4c                   	dec    %esp
c0003a1b:	00 61 20             	add    %ah,0x20(%ecx)
c0003a1e:	21 3d 20 4e 55 4c    	and    %edi,0x4c554e20
c0003a24:	4c                   	dec    %esp
c0003a25:	20 26                	and    %ah,(%esi)
c0003a27:	26 20 62 20          	and    %ah,%es:0x20(%edx)
c0003a2b:	21 3d 20 4e 55 4c    	and    %edi,0x4c554e20
c0003a31:	4c                   	dec    %esp
	...

c0003a34 <__func__.1060>:
c0003a34:	6d                   	insl   (%dx),%es:(%edi)
c0003a35:	65 6d                	gs insl (%dx),%es:(%edi)
c0003a37:	73 65                	jae    c0003a9e <__func__.1145+0x22>
c0003a39:	74 00                	je     c0003a3b <__func__.1060+0x7>
	...

c0003a3c <__func__.1070>:
c0003a3c:	6d                   	insl   (%dx),%es:(%edi)
c0003a3d:	65 6d                	gs insl (%dx),%es:(%edi)
c0003a3f:	63 70 79             	arpl   %si,0x79(%eax)
	...

c0003a44 <__func__.1083>:
c0003a44:	6d                   	insl   (%dx),%es:(%edi)
c0003a45:	65 6d                	gs insl (%dx),%es:(%edi)
c0003a47:	63 6d 70             	arpl   %bp,0x70(%ebp)
	...

c0003a4c <__func__.1091>:
c0003a4c:	73 74                	jae    c0003ac2 <__func__.1145+0x46>
c0003a4e:	72 63                	jb     c0003ab3 <__func__.1145+0x37>
c0003a50:	70 79                	jo     c0003acb <__func__.1145+0x4f>
	...

c0003a54 <__func__.1099>:
c0003a54:	73 74                	jae    c0003aca <__func__.1145+0x4e>
c0003a56:	72 6c                	jb     c0003ac4 <__func__.1145+0x48>
c0003a58:	65 6e                	outsb  %gs:(%esi),(%dx)
	...

c0003a5c <__func__.1108>:
c0003a5c:	73 74                	jae    c0003ad2 <__func__.1145+0x56>
c0003a5e:	72 63                	jb     c0003ac3 <__func__.1145+0x47>
c0003a60:	6d                   	insl   (%dx),%es:(%edi)
c0003a61:	70 00                	jo     c0003a63 <__func__.1108+0x7>
	...

c0003a64 <__func__.1116>:
c0003a64:	73 74                	jae    c0003ada <__func__.1145+0x5e>
c0003a66:	72 63                	jb     c0003acb <__func__.1145+0x4f>
c0003a68:	68 72 00 00 73       	push   $0x73000072

c0003a6c <__func__.1124>:
c0003a6c:	73 74                	jae    c0003ae2 <__func__.1145+0x66>
c0003a6e:	72 72                	jb     c0003ae2 <__func__.1145+0x66>
c0003a70:	63 68 72             	arpl   %bp,0x72(%eax)
	...

c0003a74 <__func__.1133>:
c0003a74:	73 74                	jae    c0003aea <__func__.1145+0x6e>
c0003a76:	72 63                	jb     c0003adb <__func__.1145+0x5f>
c0003a78:	61                   	popa   
c0003a79:	74 00                	je     c0003a7b <__func__.1133+0x7>
	...

c0003a7c <__func__.1145>:
c0003a7c:	73 74                	jae    c0003af2 <__func__.1145+0x76>
c0003a7e:	72 63                	jb     c0003ae3 <__func__.1145+0x67>
c0003a80:	68 72 73 00 0a       	push   $0xa007372
c0003a85:	0a 21                	or     (%ecx),%ah
c0003a87:	21 21                	and    %esp,(%ecx)
c0003a89:	21 65 72             	and    %esp,0x72(%ebp)
c0003a8c:	72 6f                	jb     c0003afd <__func__.1145+0x81>
c0003a8e:	72 21                	jb     c0003ab1 <__func__.1145+0x35>
c0003a90:	21 21                	and    %esp,(%ecx)
c0003a92:	21 0a                	and    %ecx,(%edx)
c0003a94:	00 66 69             	add    %ah,0x69(%esi)
c0003a97:	6c                   	insb   (%dx),%es:(%edi)
c0003a98:	65 6e                	outsb  %gs:(%esi),(%dx)
c0003a9a:	61                   	popa   
c0003a9b:	6d                   	insl   (%dx),%es:(%edi)
c0003a9c:	65 3a 00             	cmp    %gs:(%eax),%al
c0003a9f:	0a 00                	or     (%eax),%al
c0003aa1:	6c                   	insb   (%dx),%es:(%edi)
c0003aa2:	69 6e 65 3a 30 78 00 	imul   $0x78303a,0x65(%esi),%ebp
c0003aa9:	66 75 6e             	data16 jne c0003b1a <__func__.1145+0x9e>
c0003aac:	63 3a                	arpl   %di,(%edx)
c0003aae:	00 63 6f             	add    %ah,0x6f(%ebx)
c0003ab1:	6e                   	outsb  %ds:(%esi),(%dx)
c0003ab2:	64                   	fs
c0003ab3:	69                   	.byte 0x69
c0003ab4:	74 69                	je     c0003b1f <__func__.1145+0xa3>
c0003ab6:	6f                   	outsl  %ds:(%esi),(%dx)
c0003ab7:	6e                   	outsb  %ds:(%esi),(%dx)
c0003ab8:	3a 00                	cmp    (%eax),%al

Disassembly of section .eh_frame:

c0003abc <.eh_frame>:
c0003abc:	14 00                	adc    $0x0,%al
c0003abe:	00 00                	add    %al,(%eax)
c0003ac0:	00 00                	add    %al,(%eax)
c0003ac2:	00 00                	add    %al,(%eax)
c0003ac4:	01 7a 52             	add    %edi,0x52(%edx)
c0003ac7:	00 01                	add    %al,(%ecx)
c0003ac9:	7c 08                	jl     c0003ad3 <__func__.1145+0x57>
c0003acb:	01 1b                	add    %ebx,(%ebx)
c0003acd:	0c 04                	or     $0x4,%al
c0003acf:	04 88                	add    $0x88,%al
c0003ad1:	01 00                	add    %eax,(%eax)
c0003ad3:	00 20                	add    %ah,(%eax)
c0003ad5:	00 00                	add    %al,(%eax)
c0003ad7:	00 1c 00             	add    %bl,(%eax,%eax,1)
c0003ada:	00 00                	add    %al,(%eax)
c0003adc:	24 da                	and    $0xda,%al
c0003ade:	ff                   	(bad)  
c0003adf:	ff 8f 00 00 00 00    	decl   0x0(%edi)
c0003ae5:	44                   	inc    %esp
c0003ae6:	0c 01                	or     $0x1,%al
c0003ae8:	00 47 10             	add    %al,0x10(%edi)
c0003aeb:	05 02 75 00 43       	add    $0x43007502,%eax
c0003af0:	0f 03 75 7c          	lsl    0x7c(%ebp),%esi
c0003af4:	06                   	push   %es
c0003af5:	00 00                	add    %al,(%eax)
c0003af7:	00 18                	add    %bl,(%eax)
c0003af9:	00 00                	add    %al,(%eax)
c0003afb:	00 40 00             	add    %al,0x0(%eax)
c0003afe:	00 00                	add    %al,(%eax)
c0003b00:	8f                   	(bad)  
c0003b01:	da ff                	(bad)  
c0003b03:	ff 1c 00             	lcall  *(%eax,%eax,1)
c0003b06:	00 00                	add    %al,(%eax)
c0003b08:	00 41 0e             	add    %al,0xe(%ecx)
c0003b0b:	08 85 02 42 0d 05    	or     %al,0x50d4202(%ebp)
c0003b11:	00 00                	add    %al,(%eax)
c0003b13:	00 18                	add    %bl,(%eax)
c0003b15:	00 00                	add    %al,(%eax)
c0003b17:	00 5c 00 00          	add    %bl,0x0(%eax,%eax,1)
c0003b1b:	00 8f da ff ff 1c    	add    %cl,0x1cffffda(%edi)
c0003b21:	00 00                	add    %al,(%eax)
c0003b23:	00 00                	add    %al,(%eax)
c0003b25:	41                   	inc    %ecx
c0003b26:	0e                   	push   %cs
c0003b27:	08 85 02 42 0d 05    	or     %al,0x50d4202(%ebp)
c0003b2d:	00 00                	add    %al,(%eax)
c0003b2f:	00 1c 00             	add    %bl,(%eax,%eax,1)
c0003b32:	00 00                	add    %al,(%eax)
c0003b34:	78 00                	js     c0003b36 <__func__.1145+0xba>
c0003b36:	00 00                	add    %al,(%eax)
c0003b38:	8f                   	(bad)  
c0003b39:	da ff                	(bad)  
c0003b3b:	ff 1d 00 00 00 00    	lcall  *0x0
c0003b41:	41                   	inc    %ecx
c0003b42:	0e                   	push   %cs
c0003b43:	08 85 02 42 0d 05    	or     %al,0x50d4202(%ebp)
c0003b49:	59                   	pop    %ecx
c0003b4a:	c5 0c 04             	lds    (%esp,%eax,1),%ecx
c0003b4d:	04 00                	add    $0x0,%al
c0003b4f:	00 1c 00             	add    %bl,(%eax,%eax,1)
c0003b52:	00 00                	add    %al,(%eax)
c0003b54:	98                   	cwtl   
c0003b55:	00 00                	add    %al,(%eax)
c0003b57:	00 40 de             	add    %al,-0x22(%eax)
c0003b5a:	ff                   	(bad)  
c0003b5b:	ff 1f                	lcall  *(%edi)
c0003b5d:	00 00                	add    %al,(%eax)
c0003b5f:	00 00                	add    %al,(%eax)
c0003b61:	41                   	inc    %ecx
c0003b62:	0e                   	push   %cs
c0003b63:	08 85 02 42 0d 05    	or     %al,0x50d4202(%ebp)
c0003b69:	5b                   	pop    %ebx
c0003b6a:	c5 0c 04             	lds    (%esp,%eax,1),%ecx
c0003b6d:	04 00                	add    $0x0,%al
c0003b6f:	00 1c 00             	add    %bl,(%eax,%eax,1)
c0003b72:	00 00                	add    %al,(%eax)
c0003b74:	b8 00 00 00 3f       	mov    $0x3f000000,%eax
c0003b79:	de ff                	fdivrp %st,%st(7)
c0003b7b:	ff 85 00 00 00 00    	incl   0x0(%ebp)
c0003b81:	41                   	inc    %ecx
c0003b82:	0e                   	push   %cs
c0003b83:	08 85 02 42 0d 05    	or     %al,0x50d4202(%ebp)
c0003b89:	02 81 c5 0c 04 04    	add    0x4040cc5(%ecx),%al
c0003b8f:	00 20                	add    %ah,(%eax)
c0003b91:	00 00                	add    %al,(%eax)
c0003b93:	00 d8                	add    %bl,%al
c0003b95:	00 00                	add    %al,(%eax)
c0003b97:	00 a4 de ff ff 71 00 	add    %ah,0x71ffff(%esi,%ebx,8)
c0003b9e:	00 00                	add    %al,(%eax)
c0003ba0:	00 41 0e             	add    %al,0xe(%ecx)
c0003ba3:	08 85 02 42 0d 05    	or     %al,0x50d4202(%ebp)
c0003ba9:	44                   	inc    %esp
c0003baa:	83 03 02             	addl   $0x2,(%ebx)
c0003bad:	69 c5 c3 0c 04 04    	imul   $0x4040cc3,%ebp,%eax
c0003bb3:	00 1c 00             	add    %bl,(%eax,%eax,1)
c0003bb6:	00 00                	add    %al,(%eax)
c0003bb8:	fc                   	cld    
c0003bb9:	00 00                	add    %al,(%eax)
c0003bbb:	00 f1                	add    %dh,%cl
c0003bbd:	de ff                	fdivrp %st,%st(7)
c0003bbf:	ff 53 00             	call   *0x0(%ebx)
c0003bc2:	00 00                	add    %al,(%eax)
c0003bc4:	00 41 0e             	add    %al,0xe(%ecx)
c0003bc7:	08 85 02 42 0d 05    	or     %al,0x50d4202(%ebp)
c0003bcd:	02 4f c5             	add    -0x3b(%edi),%cl
c0003bd0:	0c 04                	or     $0x4,%al
c0003bd2:	04 00                	add    $0x0,%al
c0003bd4:	1c 00                	sbb    $0x0,%al
c0003bd6:	00 00                	add    %al,(%eax)
c0003bd8:	1c 01                	sbb    $0x1,%al
c0003bda:	00 00                	add    %al,(%eax)
c0003bdc:	24 df                	and    $0xdf,%al
c0003bde:	ff                   	(bad)  
c0003bdf:	ff 1f                	lcall  *(%edi)
c0003be1:	00 00                	add    %al,(%eax)
c0003be3:	00 00                	add    %al,(%eax)
c0003be5:	41                   	inc    %ecx
c0003be6:	0e                   	push   %cs
c0003be7:	08 85 02 42 0d 05    	or     %al,0x50d4202(%ebp)
c0003bed:	5b                   	pop    %ebx
c0003bee:	c5 0c 04             	lds    (%esp,%eax,1),%ecx
c0003bf1:	04 00                	add    $0x0,%al
c0003bf3:	00 1c 00             	add    %bl,(%eax,%eax,1)
c0003bf6:	00 00                	add    %al,(%eax)
c0003bf8:	3c 01                	cmp    $0x1,%al
c0003bfa:	00 00                	add    %al,(%eax)
c0003bfc:	23 df                	and    %edi,%ebx
c0003bfe:	ff                   	(bad)  
c0003bff:	ff 29                	ljmp   *(%ecx)
c0003c01:	00 00                	add    %al,(%eax)
c0003c03:	00 00                	add    %al,(%eax)
c0003c05:	41                   	inc    %ecx
c0003c06:	0e                   	push   %cs
c0003c07:	08 85 02 42 0d 05    	or     %al,0x50d4202(%ebp)
c0003c0d:	65 c5 0c 04          	lds    %gs:(%esp,%eax,1),%ecx
c0003c11:	04 00                	add    $0x0,%al
c0003c13:	00 1c 00             	add    %bl,(%eax,%eax,1)
c0003c16:	00 00                	add    %al,(%eax)
c0003c18:	5c                   	pop    %esp
c0003c19:	01 00                	add    %eax,(%eax)
c0003c1b:	00 2c df             	add    %ch,(%edi,%ebx,8)
c0003c1e:	ff                   	(bad)  
c0003c1f:	ff 29                	ljmp   *(%ecx)
c0003c21:	00 00                	add    %al,(%eax)
c0003c23:	00 00                	add    %al,(%eax)
c0003c25:	41                   	inc    %ecx
c0003c26:	0e                   	push   %cs
c0003c27:	08 85 02 42 0d 05    	or     %al,0x50d4202(%ebp)
c0003c2d:	65 c5 0c 04          	lds    %gs:(%esp,%eax,1),%ecx
c0003c31:	04 00                	add    $0x0,%al
c0003c33:	00 1c 00             	add    %bl,(%eax,%eax,1)
c0003c36:	00 00                	add    %al,(%eax)
c0003c38:	7c 01                	jl     c0003c3b <__func__.1145+0x1bf>
c0003c3a:	00 00                	add    %al,(%eax)
c0003c3c:	35 df ff ff 1e       	xor    $0x1effffdf,%eax
c0003c41:	00 00                	add    %al,(%eax)
c0003c43:	00 00                	add    %al,(%eax)
c0003c45:	41                   	inc    %ecx
c0003c46:	0e                   	push   %cs
c0003c47:	08 85 02 42 0d 05    	or     %al,0x50d4202(%ebp)
c0003c4d:	5a                   	pop    %edx
c0003c4e:	c5 0c 04             	lds    (%esp,%eax,1),%ecx
c0003c51:	04 00                	add    $0x0,%al
c0003c53:	00 1c 00             	add    %bl,(%eax,%eax,1)
c0003c56:	00 00                	add    %al,(%eax)
c0003c58:	9c                   	pushf  
c0003c59:	01 00                	add    %eax,(%eax)
c0003c5b:	00 33                	add    %dh,(%ebx)
c0003c5d:	df ff                	(bad)  
c0003c5f:	ff 1f                	lcall  *(%edi)
c0003c61:	00 00                	add    %al,(%eax)
c0003c63:	00 00                	add    %al,(%eax)
c0003c65:	41                   	inc    %ecx
c0003c66:	0e                   	push   %cs
c0003c67:	08 85 02 42 0d 05    	or     %al,0x50d4202(%ebp)
c0003c6d:	5b                   	pop    %ebx
c0003c6e:	c5 0c 04             	lds    (%esp,%eax,1),%ecx
c0003c71:	04 00                	add    $0x0,%al
c0003c73:	00 1c 00             	add    %bl,(%eax,%eax,1)
c0003c76:	00 00                	add    %al,(%eax)
c0003c78:	bc 01 00 00 32       	mov    $0x32000001,%esp
c0003c7d:	df ff                	(bad)  
c0003c7f:	ff                   	(bad)  
c0003c80:	d8 00                	fadds  (%eax)
c0003c82:	00 00                	add    %al,(%eax)
c0003c84:	00 41 0e             	add    %al,0xe(%ecx)
c0003c87:	08 85 02 42 0d 05    	or     %al,0x50d4202(%ebp)
c0003c8d:	02 d4                	add    %ah,%dl
c0003c8f:	c5 0c 04             	lds    (%esp,%eax,1),%ecx
c0003c92:	04 00                	add    $0x0,%al
c0003c94:	1c 00                	sbb    $0x0,%al
c0003c96:	00 00                	add    %al,(%eax)
c0003c98:	dc 01                	faddl  (%ecx)
c0003c9a:	00 00                	add    %al,(%eax)
c0003c9c:	ea df ff ff 1d 00 00 	ljmp   $0x0,$0x1dffffdf
c0003ca3:	00 00                	add    %al,(%eax)
c0003ca5:	41                   	inc    %ecx
c0003ca6:	0e                   	push   %cs
c0003ca7:	08 85 02 42 0d 05    	or     %al,0x50d4202(%ebp)
c0003cad:	59                   	pop    %ecx
c0003cae:	c5 0c 04             	lds    (%esp,%eax,1),%ecx
c0003cb1:	04 00                	add    $0x0,%al
c0003cb3:	00 1c 00             	add    %bl,(%eax,%eax,1)
c0003cb6:	00 00                	add    %al,(%eax)
c0003cb8:	fc                   	cld    
c0003cb9:	01 00                	add    %eax,(%eax)
c0003cbb:	00 e7                	add    %ah,%bh
c0003cbd:	df ff                	(bad)  
c0003cbf:	ff 43 00             	incl   0x0(%ebx)
c0003cc2:	00 00                	add    %al,(%eax)
c0003cc4:	00 41 0e             	add    %al,0xe(%ecx)
c0003cc7:	08 85 02 42 0d 05    	or     %al,0x50d4202(%ebp)
c0003ccd:	7f c5                	jg     c0003c94 <__func__.1145+0x218>
c0003ccf:	0c 04                	or     $0x4,%al
c0003cd1:	04 00                	add    $0x0,%al
c0003cd3:	00 1c 00             	add    %bl,(%eax,%eax,1)
c0003cd6:	00 00                	add    %al,(%eax)
c0003cd8:	1c 02                	sbb    $0x2,%al
c0003cda:	00 00                	add    %al,(%eax)
c0003cdc:	0a e0                	or     %al,%ah
c0003cde:	ff                   	(bad)  
c0003cdf:	ff f6                	push   %esi
c0003ce1:	00 00                	add    %al,(%eax)
c0003ce3:	00 00                	add    %al,(%eax)
c0003ce5:	41                   	inc    %ecx
c0003ce6:	0e                   	push   %cs
c0003ce7:	08 85 02 42 0d 05    	or     %al,0x50d4202(%ebp)
c0003ced:	02 f2                	add    %dl,%dh
c0003cef:	c5 0c 04             	lds    (%esp,%eax,1),%ecx
c0003cf2:	04 00                	add    $0x0,%al
c0003cf4:	1c 00                	sbb    $0x0,%al
c0003cf6:	00 00                	add    %al,(%eax)
c0003cf8:	3c 02                	cmp    $0x2,%al
c0003cfa:	00 00                	add    %al,(%eax)
c0003cfc:	e0 e0                	loopne c0003cde <__func__.1145+0x262>
c0003cfe:	ff                   	(bad)  
c0003cff:	ff 61 00             	jmp    *0x0(%ecx)
c0003d02:	00 00                	add    %al,(%eax)
c0003d04:	00 41 0e             	add    %al,0xe(%ecx)
c0003d07:	08 85 02 42 0d 05    	or     %al,0x50d4202(%ebp)
c0003d0d:	02 5d c5             	add    -0x3b(%ebp),%bl
c0003d10:	0c 04                	or     $0x4,%al
c0003d12:	04 00                	add    $0x0,%al
c0003d14:	1c 00                	sbb    $0x0,%al
c0003d16:	00 00                	add    %al,(%eax)
c0003d18:	5c                   	pop    %esp
c0003d19:	02 00                	add    (%eax),%al
c0003d1b:	00 21                	add    %ah,(%ecx)
c0003d1d:	e1 ff                	loope  c0003d1e <__func__.1145+0x2a2>
c0003d1f:	ff 93 00 00 00 00    	call   *0x0(%ebx)
c0003d25:	41                   	inc    %ecx
c0003d26:	0e                   	push   %cs
c0003d27:	08 85 02 42 0d 05    	or     %al,0x50d4202(%ebp)
c0003d2d:	02 8f c5 0c 04 04    	add    0x4040cc5(%edi),%cl
c0003d33:	00 1c 00             	add    %bl,(%eax,%eax,1)
c0003d36:	00 00                	add    %al,(%eax)
c0003d38:	7c 02                	jl     c0003d3c <__func__.1145+0x2c0>
c0003d3a:	00 00                	add    %al,(%eax)
c0003d3c:	94                   	xchg   %eax,%esp
c0003d3d:	e1 ff                	loope  c0003d3e <__func__.1145+0x2c2>
c0003d3f:	ff 44 00 00          	incl   0x0(%eax,%eax,1)
c0003d43:	00 00                	add    %al,(%eax)
c0003d45:	41                   	inc    %ecx
c0003d46:	0e                   	push   %cs
c0003d47:	08 85 02 42 0d 05    	or     %al,0x50d4202(%ebp)
c0003d4d:	02 40 c5             	add    -0x3b(%eax),%al
c0003d50:	0c 04                	or     $0x4,%al
c0003d52:	04 00                	add    $0x0,%al
c0003d54:	1c 00                	sbb    $0x0,%al
c0003d56:	00 00                	add    %al,(%eax)
c0003d58:	9c                   	pushf  
c0003d59:	02 00                	add    (%eax),%al
c0003d5b:	00 b8 e1 ff ff 15    	add    %bh,0x15ffffe1(%eax)
c0003d61:	00 00                	add    %al,(%eax)
c0003d63:	00 00                	add    %al,(%eax)
c0003d65:	41                   	inc    %ecx
c0003d66:	0e                   	push   %cs
c0003d67:	08 85 02 42 0d 05    	or     %al,0x50d4202(%ebp)
c0003d6d:	51                   	push   %ecx
c0003d6e:	c5 0c 04             	lds    (%esp,%eax,1),%ecx
c0003d71:	04 00                	add    $0x0,%al
c0003d73:	00 1c 00             	add    %bl,(%eax,%eax,1)
c0003d76:	00 00                	add    %al,(%eax)
c0003d78:	bc 02 00 00 ad       	mov    $0xad000002,%esp
c0003d7d:	e1 ff                	loope  c0003d7e <__func__.1145+0x302>
c0003d7f:	ff 17                	call   *(%edi)
c0003d81:	01 00                	add    %eax,(%eax)
c0003d83:	00 00                	add    %al,(%eax)
c0003d85:	41                   	inc    %ecx
c0003d86:	0e                   	push   %cs
c0003d87:	08 85 02 42 0d 05    	or     %al,0x50d4202(%ebp)
c0003d8d:	03 13                	add    (%ebx),%edx
c0003d8f:	01 c5                	add    %eax,%ebp
c0003d91:	0c 04                	or     $0x4,%al
c0003d93:	04 1c                	add    $0x1c,%al
c0003d95:	00 00                	add    %al,(%eax)
c0003d97:	00 dc                	add    %bl,%ah
c0003d99:	02 00                	add    (%eax),%al
c0003d9b:	00 a4 e2 ff ff 1c 00 	add    %ah,0x1cffff(%edx,%eiz,8)
c0003da2:	00 00                	add    %al,(%eax)
c0003da4:	00 41 0e             	add    %al,0xe(%ecx)
c0003da7:	08 85 02 42 0d 05    	or     %al,0x50d4202(%ebp)
c0003dad:	58                   	pop    %eax
c0003dae:	c5 0c 04             	lds    (%esp,%eax,1),%ecx
c0003db1:	04 00                	add    $0x0,%al
c0003db3:	00 1c 00             	add    %bl,(%eax,%eax,1)
c0003db6:	00 00                	add    %al,(%eax)
c0003db8:	fc                   	cld    
c0003db9:	02 00                	add    (%eax),%al
c0003dbb:	00 a0 e2 ff ff 75    	add    %ah,0x75ffffe2(%eax)
c0003dc1:	00 00                	add    %al,(%eax)
c0003dc3:	00 00                	add    %al,(%eax)
c0003dc5:	41                   	inc    %ecx
c0003dc6:	0e                   	push   %cs
c0003dc7:	08 85 02 42 0d 05    	or     %al,0x50d4202(%ebp)
c0003dcd:	02 71 c5             	add    -0x3b(%ecx),%dh
c0003dd0:	0c 04                	or     $0x4,%al
c0003dd2:	04 00                	add    $0x0,%al
c0003dd4:	1c 00                	sbb    $0x0,%al
c0003dd6:	00 00                	add    %al,(%eax)
c0003dd8:	1c 03                	sbb    $0x3,%al
c0003dda:	00 00                	add    %al,(%eax)
c0003ddc:	f5                   	cmc    
c0003ddd:	e2 ff                	loop   c0003dde <__func__.1145+0x362>
c0003ddf:	ff 93 00 00 00 00    	call   *0x0(%ebx)
c0003de5:	41                   	inc    %ecx
c0003de6:	0e                   	push   %cs
c0003de7:	08 85 02 42 0d 05    	or     %al,0x50d4202(%ebp)
c0003ded:	02 8f c5 0c 04 04    	add    0x4040cc5(%edi),%cl
c0003df3:	00 1c 00             	add    %bl,(%eax,%eax,1)
c0003df6:	00 00                	add    %al,(%eax)
c0003df8:	3c 03                	cmp    $0x3,%al
c0003dfa:	00 00                	add    %al,(%eax)
c0003dfc:	68 e3 ff ff df       	push   $0xdfffffe3
c0003e01:	00 00                	add    %al,(%eax)
c0003e03:	00 00                	add    %al,(%eax)
c0003e05:	41                   	inc    %ecx
c0003e06:	0e                   	push   %cs
c0003e07:	08 85 02 42 0d 05    	or     %al,0x50d4202(%ebp)
c0003e0d:	02 db                	add    %bl,%bl
c0003e0f:	c5 0c 04             	lds    (%esp,%eax,1),%ecx
c0003e12:	04 00                	add    $0x0,%al
c0003e14:	1c 00                	sbb    $0x0,%al
c0003e16:	00 00                	add    %al,(%eax)
c0003e18:	5c                   	pop    %esp
c0003e19:	03 00                	add    (%eax),%eax
c0003e1b:	00 27                	add    %ah,(%edi)
c0003e1d:	e4 ff                	in     $0xff,%al
c0003e1f:	ff                   	(bad)  
c0003e20:	7d 00                	jge    c0003e22 <__func__.1145+0x3a6>
c0003e22:	00 00                	add    %al,(%eax)
c0003e24:	00 41 0e             	add    %al,0xe(%ecx)
c0003e27:	08 85 02 42 0d 05    	or     %al,0x50d4202(%ebp)
c0003e2d:	02 79 c5             	add    -0x3b(%ecx),%bh
c0003e30:	0c 04                	or     $0x4,%al
c0003e32:	04 00                	add    $0x0,%al
c0003e34:	1c 00                	sbb    $0x0,%al
c0003e36:	00 00                	add    %al,(%eax)
c0003e38:	7c 03                	jl     c0003e3d <__func__.1145+0x3c1>
c0003e3a:	00 00                	add    %al,(%eax)
c0003e3c:	84 e4                	test   %ah,%ah
c0003e3e:	ff                   	(bad)  
c0003e3f:	ff 4e 00             	decl   0x0(%esi)
c0003e42:	00 00                	add    %al,(%eax)
c0003e44:	00 41 0e             	add    %al,0xe(%ecx)
c0003e47:	08 85 02 42 0d 05    	or     %al,0x50d4202(%ebp)
c0003e4d:	02 4a c5             	add    -0x3b(%edx),%cl
c0003e50:	0c 04                	or     $0x4,%al
c0003e52:	04 00                	add    $0x0,%al
c0003e54:	1c 00                	sbb    $0x0,%al
c0003e56:	00 00                	add    %al,(%eax)
c0003e58:	9c                   	pushf  
c0003e59:	03 00                	add    (%eax),%eax
c0003e5b:	00 c9                	add    %cl,%cl
c0003e5d:	e4 ff                	in     $0xff,%al
c0003e5f:	ff 2e                	ljmp   *(%esi)
c0003e61:	00 00                	add    %al,(%eax)
c0003e63:	00 00                	add    %al,(%eax)
c0003e65:	41                   	inc    %ecx
c0003e66:	0e                   	push   %cs
c0003e67:	08 85 02 42 0d 05    	or     %al,0x50d4202(%ebp)
c0003e6d:	6a c5                	push   $0xffffffc5
c0003e6f:	0c 04                	or     $0x4,%al
c0003e71:	04 00                	add    $0x0,%al
c0003e73:	00 1c 00             	add    %bl,(%eax,%eax,1)
c0003e76:	00 00                	add    %al,(%eax)
c0003e78:	bc 03 00 00 d7       	mov    $0xd7000003,%esp
c0003e7d:	e4 ff                	in     $0xff,%al
c0003e7f:	ff 16                	call   *(%esi)
c0003e81:	00 00                	add    %al,(%eax)
c0003e83:	00 00                	add    %al,(%eax)
c0003e85:	41                   	inc    %ecx
c0003e86:	0e                   	push   %cs
c0003e87:	08 85 02 42 0d 05    	or     %al,0x50d4202(%ebp)
c0003e8d:	52                   	push   %edx
c0003e8e:	c5 0c 04             	lds    (%esp,%eax,1),%ecx
c0003e91:	04 00                	add    $0x0,%al
c0003e93:	00 1c 00             	add    %bl,(%eax,%eax,1)
c0003e96:	00 00                	add    %al,(%eax)
c0003e98:	dc 03                	faddl  (%ebx)
c0003e9a:	00 00                	add    %al,(%eax)
c0003e9c:	cd e4                	int    $0xe4
c0003e9e:	ff                   	(bad)  
c0003e9f:	ff 45 00             	incl   0x0(%ebp)
c0003ea2:	00 00                	add    %al,(%eax)
c0003ea4:	00 41 0e             	add    %al,0xe(%ecx)
c0003ea7:	08 85 02 42 0d 05    	or     %al,0x50d4202(%ebp)
c0003ead:	02 41 c5             	add    -0x3b(%ecx),%al
c0003eb0:	0c 04                	or     $0x4,%al
c0003eb2:	04 00                	add    $0x0,%al
c0003eb4:	1c 00                	sbb    $0x0,%al
c0003eb6:	00 00                	add    %al,(%eax)
c0003eb8:	fc                   	cld    
c0003eb9:	03 00                	add    (%eax),%eax
c0003ebb:	00 f2                	add    %dh,%dl
c0003ebd:	e4 ff                	in     $0xff,%al
c0003ebf:	ff 1e                	lcall  *(%esi)
c0003ec1:	00 00                	add    %al,(%eax)
c0003ec3:	00 00                	add    %al,(%eax)
c0003ec5:	41                   	inc    %ecx
c0003ec6:	0e                   	push   %cs
c0003ec7:	08 85 02 42 0d 05    	or     %al,0x50d4202(%ebp)
c0003ecd:	5a                   	pop    %edx
c0003ece:	c5 0c 04             	lds    (%esp,%eax,1),%ecx
c0003ed1:	04 00                	add    $0x0,%al
c0003ed3:	00 1c 00             	add    %bl,(%eax,%eax,1)
c0003ed6:	00 00                	add    %al,(%eax)
c0003ed8:	1c 04                	sbb    $0x4,%al
c0003eda:	00 00                	add    %al,(%eax)
c0003edc:	f0 e4 ff             	lock in $0xff,%al
c0003edf:	ff 1e                	lcall  *(%esi)
c0003ee1:	00 00                	add    %al,(%eax)
c0003ee3:	00 00                	add    %al,(%eax)
c0003ee5:	41                   	inc    %ecx
c0003ee6:	0e                   	push   %cs
c0003ee7:	08 85 02 42 0d 05    	or     %al,0x50d4202(%ebp)
c0003eed:	5a                   	pop    %edx
c0003eee:	c5 0c 04             	lds    (%esp,%eax,1),%ecx
c0003ef1:	04 00                	add    $0x0,%al
c0003ef3:	00 1c 00             	add    %bl,(%eax,%eax,1)
c0003ef6:	00 00                	add    %al,(%eax)
c0003ef8:	3c 04                	cmp    $0x4,%al
c0003efa:	00 00                	add    %al,(%eax)
c0003efc:	ee                   	out    %al,(%dx)
c0003efd:	e4 ff                	in     $0xff,%al
c0003eff:	ff                   	(bad)  
c0003f00:	3a 00                	cmp    (%eax),%al
c0003f02:	00 00                	add    %al,(%eax)
c0003f04:	00 41 0e             	add    %al,0xe(%ecx)
c0003f07:	08 85 02 42 0d 05    	or     %al,0x50d4202(%ebp)
c0003f0d:	76 c5                	jbe    c0003ed4 <__func__.1145+0x458>
c0003f0f:	0c 04                	or     $0x4,%al
c0003f11:	04 00                	add    $0x0,%al
c0003f13:	00 1c 00             	add    %bl,(%eax,%eax,1)
c0003f16:	00 00                	add    %al,(%eax)
c0003f18:	5c                   	pop    %esp
c0003f19:	04 00                	add    $0x0,%al
c0003f1b:	00 08                	add    %cl,(%eax)
c0003f1d:	e5 ff                	in     $0xff,%eax
c0003f1f:	ff 22                	jmp    *(%edx)
c0003f21:	00 00                	add    %al,(%eax)
c0003f23:	00 00                	add    %al,(%eax)
c0003f25:	41                   	inc    %ecx
c0003f26:	0e                   	push   %cs
c0003f27:	08 85 02 42 0d 05    	or     %al,0x50d4202(%ebp)
c0003f2d:	5e                   	pop    %esi
c0003f2e:	c5 0c 04             	lds    (%esp,%eax,1),%ecx
c0003f31:	04 00                	add    $0x0,%al
c0003f33:	00 1c 00             	add    %bl,(%eax,%eax,1)
c0003f36:	00 00                	add    %al,(%eax)
c0003f38:	7c 04                	jl     c0003f3e <__func__.1145+0x4c2>
c0003f3a:	00 00                	add    %al,(%eax)
c0003f3c:	0a e5                	or     %ch,%ah
c0003f3e:	ff                   	(bad)  
c0003f3f:	ff                   	(bad)  
c0003f40:	3b 00                	cmp    (%eax),%eax
c0003f42:	00 00                	add    %al,(%eax)
c0003f44:	00 41 0e             	add    %al,0xe(%ecx)
c0003f47:	08 85 02 42 0d 05    	or     %al,0x50d4202(%ebp)
c0003f4d:	77 c5                	ja     c0003f14 <__func__.1145+0x498>
c0003f4f:	0c 04                	or     $0x4,%al
c0003f51:	04 00                	add    $0x0,%al
c0003f53:	00 1c 00             	add    %bl,(%eax,%eax,1)
c0003f56:	00 00                	add    %al,(%eax)
c0003f58:	9c                   	pushf  
c0003f59:	04 00                	add    $0x0,%al
c0003f5b:	00 25 e5 ff ff 5a    	add    %ah,0x5affffe5
c0003f61:	00 00                	add    %al,(%eax)
c0003f63:	00 00                	add    %al,(%eax)
c0003f65:	41                   	inc    %ecx
c0003f66:	0e                   	push   %cs
c0003f67:	08 85 02 42 0d 05    	or     %al,0x50d4202(%ebp)
c0003f6d:	02 56 c5             	add    -0x3b(%esi),%dl
c0003f70:	0c 04                	or     $0x4,%al
c0003f72:	04 00                	add    $0x0,%al
c0003f74:	1c 00                	sbb    $0x0,%al
c0003f76:	00 00                	add    %al,(%eax)
c0003f78:	bc 04 00 00 5f       	mov    $0x5f000004,%esp
c0003f7d:	e5 ff                	in     $0xff,%eax
c0003f7f:	ff 35 00 00 00 00    	pushl  0x0
c0003f85:	41                   	inc    %ecx
c0003f86:	0e                   	push   %cs
c0003f87:	08 85 02 42 0d 05    	or     %al,0x50d4202(%ebp)
c0003f8d:	71 c5                	jno    c0003f54 <__func__.1145+0x4d8>
c0003f8f:	0c 04                	or     $0x4,%al
c0003f91:	04 00                	add    $0x0,%al
c0003f93:	00 1c 00             	add    %bl,(%eax,%eax,1)
c0003f96:	00 00                	add    %al,(%eax)
c0003f98:	dc 04 00             	faddl  (%eax,%eax,1)
c0003f9b:	00 74 e5 ff          	add    %dh,-0x1(%ebp,%eiz,8)
c0003f9f:	ff 82 00 00 00 00    	incl   0x0(%edx)
c0003fa5:	41                   	inc    %ecx
c0003fa6:	0e                   	push   %cs
c0003fa7:	08 85 02 42 0d 05    	or     %al,0x50d4202(%ebp)
c0003fad:	02 7e c5             	add    -0x3b(%esi),%bh
c0003fb0:	0c 04                	or     $0x4,%al
c0003fb2:	04 00                	add    $0x0,%al
c0003fb4:	1c 00                	sbb    $0x0,%al
c0003fb6:	00 00                	add    %al,(%eax)
c0003fb8:	fc                   	cld    
c0003fb9:	04 00                	add    $0x0,%al
c0003fbb:	00 d6                	add    %dl,%dh
c0003fbd:	e5 ff                	in     $0xff,%eax
c0003fbf:	ff 30                	pushl  (%eax)
c0003fc1:	00 00                	add    %al,(%eax)
c0003fc3:	00 00                	add    %al,(%eax)
c0003fc5:	41                   	inc    %ecx
c0003fc6:	0e                   	push   %cs
c0003fc7:	08 85 02 42 0d 05    	or     %al,0x50d4202(%ebp)
c0003fcd:	6c                   	insb   (%dx),%es:(%edi)
c0003fce:	c5 0c 04             	lds    (%esp,%eax,1),%ecx
c0003fd1:	04 00                	add    $0x0,%al
c0003fd3:	00 1c 00             	add    %bl,(%eax,%eax,1)
c0003fd6:	00 00                	add    %al,(%eax)
c0003fd8:	1c 05                	sbb    $0x5,%al
c0003fda:	00 00                	add    %al,(%eax)
c0003fdc:	e6 e5                	out    %al,$0xe5
c0003fde:	ff                   	(bad)  
c0003fdf:	ff 1c 00             	lcall  *(%eax,%eax,1)
c0003fe2:	00 00                	add    %al,(%eax)
c0003fe4:	00 41 0e             	add    %al,0xe(%ecx)
c0003fe7:	08 85 02 42 0d 05    	or     %al,0x50d4202(%ebp)
c0003fed:	58                   	pop    %eax
c0003fee:	c5 0c 04             	lds    (%esp,%eax,1),%ecx
c0003ff1:	04 00                	add    $0x0,%al
c0003ff3:	00 1c 00             	add    %bl,(%eax,%eax,1)
c0003ff6:	00 00                	add    %al,(%eax)
c0003ff8:	3c 05                	cmp    $0x5,%al
c0003ffa:	00 00                	add    %al,(%eax)
c0003ffc:	e2 e5                	loop   c0003fe3 <__func__.1145+0x567>
c0003ffe:	ff                   	(bad)  
c0003fff:	ff 54 00 00          	call   *0x0(%eax,%eax,1)
c0004003:	00 00                	add    %al,(%eax)
c0004005:	41                   	inc    %ecx
c0004006:	0e                   	push   %cs
c0004007:	08 85 02 42 0d 05    	or     %al,0x50d4202(%ebp)
c000400d:	02 50 c5             	add    -0x3b(%eax),%dl
c0004010:	0c 04                	or     $0x4,%al
c0004012:	04 00                	add    $0x0,%al
c0004014:	1c 00                	sbb    $0x0,%al
c0004016:	00 00                	add    %al,(%eax)
c0004018:	5c                   	pop    %esp
c0004019:	05 00 00 16 e6       	add    $0xe6160000,%eax
c000401e:	ff                   	(bad)  
c000401f:	ff 12                	call   *(%edx)
c0004021:	01 00                	add    %eax,(%eax)
c0004023:	00 00                	add    %al,(%eax)
c0004025:	41                   	inc    %ecx
c0004026:	0e                   	push   %cs
c0004027:	08 85 02 42 0d 05    	or     %al,0x50d4202(%ebp)
c000402d:	03 0e                	add    (%esi),%ecx
c000402f:	01 c5                	add    %eax,%ebp
c0004031:	0c 04                	or     $0x4,%al
c0004033:	04 1c                	add    $0x1c,%al
c0004035:	00 00                	add    %al,(%eax)
c0004037:	00 7c 05 00          	add    %bh,0x0(%ebp,%eax,1)
c000403b:	00 08                	add    %cl,(%eax)
c000403d:	e7 ff                	out    %eax,$0xff
c000403f:	ff cf                	dec    %edi
c0004041:	00 00                	add    %al,(%eax)
c0004043:	00 00                	add    %al,(%eax)
c0004045:	41                   	inc    %ecx
c0004046:	0e                   	push   %cs
c0004047:	08 85 02 42 0d 05    	or     %al,0x50d4202(%ebp)
c000404d:	02 cb                	add    %bl,%cl
c000404f:	c5 0c 04             	lds    (%esp,%eax,1),%ecx
c0004052:	04 00                	add    $0x0,%al
c0004054:	1c 00                	sbb    $0x0,%al
c0004056:	00 00                	add    %al,(%eax)
c0004058:	9c                   	pushf  
c0004059:	05 00 00 b7 e7       	add    $0xe7b70000,%eax
c000405e:	ff                   	(bad)  
c000405f:	ff 6a 00             	ljmp   *0x0(%edx)
c0004062:	00 00                	add    %al,(%eax)
c0004064:	00 41 0e             	add    %al,0xe(%ecx)
c0004067:	08 85 02 42 0d 05    	or     %al,0x50d4202(%ebp)
c000406d:	02 66 c5             	add    -0x3b(%esi),%ah
c0004070:	0c 04                	or     $0x4,%al
c0004072:	04 00                	add    $0x0,%al
c0004074:	1c 00                	sbb    $0x0,%al
c0004076:	00 00                	add    %al,(%eax)
c0004078:	bc 05 00 00 01       	mov    $0x1000005,%esp
c000407d:	e8 ff ff 10 02       	call   c2114081 <_end+0x210eaad>
c0004082:	00 00                	add    %al,(%eax)
c0004084:	00 41 0e             	add    %al,0xe(%ecx)
c0004087:	08 85 02 42 0d 05    	or     %al,0x50d4202(%ebp)
c000408d:	03 0c 02             	add    (%edx,%eax,1),%ecx
c0004090:	c5 0c 04             	lds    (%esp,%eax,1),%ecx
c0004093:	04 1c                	add    $0x1c,%al
c0004095:	00 00                	add    %al,(%eax)
c0004097:	00 dc                	add    %bl,%ah
c0004099:	05 00 00 f1 e9       	add    $0xe9f10000,%eax
c000409e:	ff                   	(bad)  
c000409f:	ff                   	(bad)  
c00040a0:	3e 00 00             	add    %al,%ds:(%eax)
c00040a3:	00 00                	add    %al,(%eax)
c00040a5:	41                   	inc    %ecx
c00040a6:	0e                   	push   %cs
c00040a7:	08 85 02 42 0d 05    	or     %al,0x50d4202(%ebp)
c00040ad:	7a c5                	jp     c0004074 <__func__.1145+0x5f8>
c00040af:	0c 04                	or     $0x4,%al
c00040b1:	04 00                	add    $0x0,%al
c00040b3:	00 1c 00             	add    %bl,(%eax,%eax,1)
c00040b6:	00 00                	add    %al,(%eax)
c00040b8:	fc                   	cld    
c00040b9:	05 00 00 0f ea       	add    $0xea0f0000,%eax
c00040be:	ff                   	(bad)  
c00040bf:	ff 23                	jmp    *(%ebx)
c00040c1:	00 00                	add    %al,(%eax)
c00040c3:	00 00                	add    %al,(%eax)
c00040c5:	41                   	inc    %ecx
c00040c6:	0e                   	push   %cs
c00040c7:	08 85 02 42 0d 05    	or     %al,0x50d4202(%ebp)
c00040cd:	5f                   	pop    %edi
c00040ce:	c5 0c 04             	lds    (%esp,%eax,1),%ecx
c00040d1:	04 00                	add    $0x0,%al
c00040d3:	00 20                	add    %ah,(%eax)
c00040d5:	00 00                	add    %al,(%eax)
c00040d7:	00 1c 06             	add    %bl,(%esi,%eax,1)
c00040da:	00 00                	add    %al,(%eax)
c00040dc:	12 ea                	adc    %dl,%ch
c00040de:	ff                   	(bad)  
c00040df:	ff 45 00             	incl   0x0(%ebp)
c00040e2:	00 00                	add    %al,(%eax)
c00040e4:	00 41 0e             	add    %al,0xe(%ecx)
c00040e7:	08 85 02 42 0d 05    	or     %al,0x50d4202(%ebp)
c00040ed:	44                   	inc    %esp
c00040ee:	83 03 7c             	addl   $0x7c,(%ebx)
c00040f1:	c3                   	ret    
c00040f2:	41                   	inc    %ecx
c00040f3:	c5 0c 04             	lds    (%esp,%eax,1),%ecx
c00040f6:	04 00                	add    $0x0,%al
c00040f8:	1c 00                	sbb    $0x0,%al
c00040fa:	00 00                	add    %al,(%eax)
c00040fc:	40                   	inc    %eax
c00040fd:	06                   	push   %es
c00040fe:	00 00                	add    %al,(%eax)
c0004100:	33 ea                	xor    %edx,%ebp
c0004102:	ff                   	(bad)  
c0004103:	ff                   	(bad)  
c0004104:	38 01                	cmp    %al,(%ecx)
c0004106:	00 00                	add    %al,(%eax)
c0004108:	00 41 0e             	add    %al,0xe(%ecx)
c000410b:	08 85 02 42 0d 05    	or     %al,0x50d4202(%ebp)
c0004111:	03 34 01             	add    (%ecx,%eax,1),%esi
c0004114:	c5 0c 04             	lds    (%esp,%eax,1),%ecx
c0004117:	04 24                	add    $0x24,%al
c0004119:	00 00                	add    %al,(%eax)
c000411b:	00 60 06             	add    %ah,0x6(%eax)
c000411e:	00 00                	add    %al,(%eax)
c0004120:	4b                   	dec    %ebx
c0004121:	eb ff                	jmp    c0004122 <__func__.1145+0x6a6>
c0004123:	ff b1 00 00 00 00    	pushl  0x0(%ecx)
c0004129:	41                   	inc    %ecx
c000412a:	0e                   	push   %cs
c000412b:	08 85 02 42 0d 05    	or     %al,0x50d4202(%ebp)
c0004131:	45                   	inc    %ebp
c0004132:	86 03                	xchg   %al,(%ebx)
c0004134:	83 04 02 a6          	addl   $0xffffffa6,(%edx,%eax,1)
c0004138:	c3                   	ret    
c0004139:	41                   	inc    %ecx
c000413a:	c6 41 c5 0c          	movb   $0xc,-0x3b(%ecx)
c000413e:	04 04                	add    $0x4,%al
c0004140:	1c 00                	sbb    $0x0,%al
c0004142:	00 00                	add    %al,(%eax)
c0004144:	88 06                	mov    %al,(%esi)
c0004146:	00 00                	add    %al,(%eax)
c0004148:	d4 eb                	aam    $0xeb
c000414a:	ff                   	(bad)  
c000414b:	ff 52 00             	call   *0x0(%edx)
c000414e:	00 00                	add    %al,(%eax)
c0004150:	00 41 0e             	add    %al,0xe(%ecx)
c0004153:	08 85 02 42 0d 05    	or     %al,0x50d4202(%ebp)
c0004159:	02 4e c5             	add    -0x3b(%esi),%cl
c000415c:	0c 04                	or     $0x4,%al
c000415e:	04 00                	add    $0x0,%al
c0004160:	1c 00                	sbb    $0x0,%al
c0004162:	00 00                	add    %al,(%eax)
c0004164:	a8 06                	test   $0x6,%al
c0004166:	00 00                	add    %al,(%eax)
c0004168:	06                   	push   %es
c0004169:	ec                   	in     (%dx),%al
c000416a:	ff                   	(bad)  
c000416b:	ff 60 00             	jmp    *0x0(%eax)
c000416e:	00 00                	add    %al,(%eax)
c0004170:	00 41 0e             	add    %al,0xe(%ecx)
c0004173:	08 85 02 42 0d 05    	or     %al,0x50d4202(%ebp)
c0004179:	02 5c c5 0c          	add    0xc(%ebp,%eax,8),%bl
c000417d:	04 04                	add    $0x4,%al
c000417f:	00 1c 00             	add    %bl,(%eax,%eax,1)
c0004182:	00 00                	add    %al,(%eax)
c0004184:	c8 06 00 00          	enter  $0x6,$0x0
c0004188:	46                   	inc    %esi
c0004189:	ec                   	in     (%dx),%al
c000418a:	ff                   	(bad)  
c000418b:	ff                   	(bad)  
c000418c:	7e 00                	jle    c000418e <__func__.1145+0x712>
c000418e:	00 00                	add    %al,(%eax)
c0004190:	00 41 0e             	add    %al,0xe(%ecx)
c0004193:	08 85 02 42 0d 05    	or     %al,0x50d4202(%ebp)
c0004199:	02 7a c5             	add    -0x3b(%edx),%bh
c000419c:	0c 04                	or     $0x4,%al
c000419e:	04 00                	add    $0x0,%al
c00041a0:	1c 00                	sbb    $0x0,%al
c00041a2:	00 00                	add    %al,(%eax)
c00041a4:	e8 06 00 00 a4       	call   640041af <sel_video+0x64004197>
c00041a9:	ec                   	in     (%dx),%al
c00041aa:	ff                   	(bad)  
c00041ab:	ff 55 00             	call   *0x0(%ebp)
c00041ae:	00 00                	add    %al,(%eax)
c00041b0:	00 41 0e             	add    %al,0xe(%ecx)
c00041b3:	08 85 02 42 0d 05    	or     %al,0x50d4202(%ebp)
c00041b9:	02 51 c5             	add    -0x3b(%ecx),%dl
c00041bc:	0c 04                	or     $0x4,%al
c00041be:	04 00                	add    $0x0,%al
c00041c0:	1c 00                	sbb    $0x0,%al
c00041c2:	00 00                	add    %al,(%eax)
c00041c4:	08 07                	or     %al,(%edi)
c00041c6:	00 00                	add    %al,(%eax)
c00041c8:	d9 ec                	fldlg2 
c00041ca:	ff                   	(bad)  
c00041cb:	ff 4b 00             	decl   0x0(%ebx)
c00041ce:	00 00                	add    %al,(%eax)
c00041d0:	00 41 0e             	add    %al,0xe(%ecx)
c00041d3:	08 85 02 42 0d 05    	or     %al,0x50d4202(%ebp)
c00041d9:	02 47 c5             	add    -0x3b(%edi),%al
c00041dc:	0c 04                	or     $0x4,%al
c00041de:	04 00                	add    $0x0,%al
c00041e0:	1c 00                	sbb    $0x0,%al
c00041e2:	00 00                	add    %al,(%eax)
c00041e4:	28 07                	sub    %al,(%edi)
c00041e6:	00 00                	add    %al,(%eax)
c00041e8:	04 ed                	add    $0xed,%al
c00041ea:	ff                   	(bad)  
c00041eb:	ff                   	(bad)  
c00041ec:	79 00                	jns    c00041ee <__func__.1145+0x772>
c00041ee:	00 00                	add    %al,(%eax)
c00041f0:	00 41 0e             	add    %al,0xe(%ecx)
c00041f3:	08 85 02 42 0d 05    	or     %al,0x50d4202(%ebp)
c00041f9:	02 75 c5             	add    -0x3b(%ebp),%dh
c00041fc:	0c 04                	or     $0x4,%al
c00041fe:	04 00                	add    $0x0,%al
c0004200:	1c 00                	sbb    $0x0,%al
c0004202:	00 00                	add    %al,(%eax)
c0004204:	48                   	dec    %eax
c0004205:	07                   	pop    %es
c0004206:	00 00                	add    %al,(%eax)
c0004208:	5d                   	pop    %ebp
c0004209:	ed                   	in     (%dx),%eax
c000420a:	ff                   	(bad)  
c000420b:	ff 58 00             	lcall  *0x0(%eax)
c000420e:	00 00                	add    %al,(%eax)
c0004210:	00 41 0e             	add    %al,0xe(%ecx)
c0004213:	08 85 02 42 0d 05    	or     %al,0x50d4202(%ebp)
c0004219:	02 54 c5 0c          	add    0xc(%ebp,%eax,8),%dl
c000421d:	04 04                	add    $0x4,%al
c000421f:	00 1c 00             	add    %bl,(%eax,%eax,1)
c0004222:	00 00                	add    %al,(%eax)
c0004224:	68 07 00 00 95       	push   $0x95000007
c0004229:	ed                   	in     (%dx),%eax
c000422a:	ff                   	(bad)  
c000422b:	ff 5e 00             	lcall  *0x0(%esi)
c000422e:	00 00                	add    %al,(%eax)
c0004230:	00 41 0e             	add    %al,0xe(%ecx)
c0004233:	08 85 02 42 0d 05    	or     %al,0x50d4202(%ebp)
c0004239:	02 5a c5             	add    -0x3b(%edx),%bl
c000423c:	0c 04                	or     $0x4,%al
c000423e:	04 00                	add    $0x0,%al
c0004240:	1c 00                	sbb    $0x0,%al
c0004242:	00 00                	add    %al,(%eax)
c0004244:	88 07                	mov    %al,(%edi)
c0004246:	00 00                	add    %al,(%eax)
c0004248:	d3 ed                	shr    %cl,%ebp
c000424a:	ff                   	(bad)  
c000424b:	ff 6a 00             	ljmp   *0x0(%edx)
c000424e:	00 00                	add    %al,(%eax)
c0004250:	00 41 0e             	add    %al,0xe(%ecx)
c0004253:	08 85 02 42 0d 05    	or     %al,0x50d4202(%ebp)
c0004259:	02 66 c5             	add    -0x3b(%esi),%ah
c000425c:	0c 04                	or     $0x4,%al
c000425e:	04 00                	add    $0x0,%al
c0004260:	1c 00                	sbb    $0x0,%al
c0004262:	00 00                	add    %al,(%eax)
c0004264:	a8 07                	test   $0x7,%al
c0004266:	00 00                	add    %al,(%eax)
c0004268:	1d ee ff ff 62       	sbb    $0x62ffffee,%eax
c000426d:	00 00                	add    %al,(%eax)
c000426f:	00 00                	add    %al,(%eax)
c0004271:	41                   	inc    %ecx
c0004272:	0e                   	push   %cs
c0004273:	08 85 02 42 0d 05    	or     %al,0x50d4202(%ebp)
c0004279:	02 5e c5             	add    -0x3b(%esi),%bl
c000427c:	0c 04                	or     $0x4,%al
c000427e:	04 00                	add    $0x0,%al
c0004280:	18 00                	sbb    %al,(%eax)
c0004282:	00 00                	add    %al,(%eax)
c0004284:	c8 07 00 00          	enter  $0x7,$0x0
c0004288:	5f                   	pop    %edi
c0004289:	ee                   	out    %al,(%dx)
c000428a:	ff                   	(bad)  
c000428b:	ff d6                	call   *%esi
c000428d:	00 00                	add    %al,(%eax)
c000428f:	00 00                	add    %al,(%eax)
c0004291:	41                   	inc    %ecx
c0004292:	0e                   	push   %cs
c0004293:	08 85 02 42 0d 05    	or     %al,0x50d4202(%ebp)
c0004299:	00 00                	add    %al,(%eax)
	...

Disassembly of section .data:

c000529c <intr_entry_table>:
c000529c:	10 16                	adc    %dl,(%esi)
c000529e:	00 c0                	add    %al,%al
c00052a0:	29 16                	sub    %edx,(%esi)
c00052a2:	00 c0                	add    %al,%al
c00052a4:	42                   	inc    %edx
c00052a5:	16                   	push   %ss
c00052a6:	00 c0                	add    %al,%al
c00052a8:	5b                   	pop    %ebx
c00052a9:	16                   	push   %ss
c00052aa:	00 c0                	add    %al,%al
c00052ac:	77 16                	ja     c00052c4 <intr_entry_table+0x28>
c00052ae:	00 c0                	add    %al,%al
c00052b0:	93                   	xchg   %eax,%ebx
c00052b1:	16                   	push   %ss
c00052b2:	00 c0                	add    %al,%al
c00052b4:	af                   	scas   %es:(%edi),%eax
c00052b5:	16                   	push   %ss
c00052b6:	00 c0                	add    %al,%al
c00052b8:	cb                   	lret   
c00052b9:	16                   	push   %ss
c00052ba:	00 c0                	add    %al,%al
c00052bc:	e7 16                	out    %eax,$0x16
c00052be:	00 c0                	add    %al,%al
c00052c0:	02 17                	add    (%edi),%dl
c00052c2:	00 c0                	add    %al,%al
c00052c4:	1e                   	push   %ds
c00052c5:	17                   	pop    %ss
c00052c6:	00 c0                	add    %al,%al
c00052c8:	39 17                	cmp    %edx,(%edi)
c00052ca:	00 c0                	add    %al,%al
c00052cc:	54                   	push   %esp
c00052cd:	17                   	pop    %ss
c00052ce:	00 c0                	add    %al,%al
c00052d0:	70 17                	jo     c00052e9 <intr_entry_table+0x4d>
c00052d2:	00 c0                	add    %al,%al
c00052d4:	8b 17                	mov    (%edi),%edx
c00052d6:	00 c0                	add    %al,%al
c00052d8:	a6                   	cmpsb  %es:(%edi),%ds:(%esi)
c00052d9:	17                   	pop    %ss
c00052da:	00 c0                	add    %al,%al
c00052dc:	c2 17 00             	ret    $0x17
c00052df:	c0 de 17             	rcr    $0x17,%dh
c00052e2:	00 c0                	add    %al,%al
c00052e4:	f9                   	stc    
c00052e5:	17                   	pop    %ss
c00052e6:	00 c0                	add    %al,%al
c00052e8:	15 18 00 c0 31       	adc    $0x31c00018,%eax
c00052ed:	18 00                	sbb    %al,(%eax)
c00052ef:	c0 4d 18 00          	rorb   $0x0,0x18(%ebp)
c00052f3:	c0 69 18 00          	shrb   $0x0,0x18(%ecx)
c00052f7:	c0 85 18 00 c0 a1 18 	rolb   $0x18,-0x5e3fffe8(%ebp)
c00052fe:	00 c0                	add    %al,%al
c0005300:	bc 18 00 c0 d8       	mov    $0xd8c00018,%esp
c0005305:	18 00                	sbb    %al,(%eax)
c0005307:	c0                   	(bad)  
c0005308:	f3 18 00             	repz sbb %al,(%eax)
c000530b:	c0 0e 19             	rorb   $0x19,(%esi)
c000530e:	00 c0                	add    %al,%al
c0005310:	2a 19                	sub    (%ecx),%bl
c0005312:	00 c0                	add    %al,%al
c0005314:	45                   	inc    %ebp
c0005315:	19 00                	sbb    %eax,(%eax)
c0005317:	c0 60 19 00          	shlb   $0x0,0x19(%eax)
c000531b:	c0 7c 19 00 c0       	sarb   $0xc0,0x0(%ecx,%ebx,1)

c0005320 <put_int_buffer>:
	...

Disassembly of section .bss:

c0005340 <idt>:
	...

c0005448 <thread_tag>:
c0005448:	00 00                	add    %al,(%eax)
	...

c000544c <ticks>:
	...

c0005460 <intr_name>:
	...

c0005500 <idt_table>:
	...

c0005584 <thread_ready_list>:
	...

c0005594 <thread_all_list>:
	...

c00055a4 <main_thread>:
c00055a4:	00 00                	add    %al,(%eax)
	...

c00055a8 <user_pool>:
	...

c00055b8 <kernel_vaddr>:
	...

c00055c4 <kernel_pool>:
	...

Disassembly of section .comment:

00000000 <.comment>:
   0:	47                   	inc    %edi
   1:	43                   	inc    %ebx
   2:	43                   	inc    %ebx
   3:	3a 20                	cmp    (%eax),%ah
   5:	28 55 62             	sub    %dl,0x62(%ebp)
   8:	75 6e                	jne    78 <sel_video+0x60>
   a:	74 75                	je     81 <sel_video+0x69>
   c:	20 35 2e 34 2e 30    	and    %dh,0x302e342e
  12:	2d 36 75 62 75       	sub    $0x75627536,%eax
  17:	6e                   	outsb  %ds:(%esi),(%dx)
  18:	74 75                	je     8f <sel_video+0x77>
  1a:	31 7e 31             	xor    %edi,0x31(%esi)
  1d:	36 2e 30 34 2e       	ss xor %dh,%cs:(%esi,%ebp,1)
  22:	35 29 20 35 2e       	xor    $0x2e352029,%eax
  27:	34 2e                	xor    $0x2e,%al
  29:	30 20                	xor    %ah,(%eax)
  2b:	32 30                	xor    (%eax),%dh
  2d:	31 36                	xor    %esi,(%esi)
  2f:	30 36                	xor    %dh,(%esi)
  31:	30 39                	xor    %bh,(%ecx)
	...
